; Listing generated by Microsoft (R) Optimizing Compiler Version 19.23.28008.0 

	TITLE	C:\Users\libit\source\repos\L008A\L008A\L008A.cpp
	.686P
	.XMM
	include listing.inc
	.model	flat

INCLUDELIB LIBCMT
INCLUDELIB OLDNAMES

CONST	SEGMENT
$SG29959 DB	'Hello World!', 0aH, 00H
CONST	ENDS
PUBLIC	??2@YAPAXIPAX@Z					; operator new
PUBLIC	??0exception@std@@QAE@QBD@Z			; std::exception::exception
PUBLIC	??0exception@std@@QAE@QBDH@Z			; std::exception::exception
PUBLIC	??0exception@std@@QAE@ABV01@@Z			; std::exception::exception
PUBLIC	??1exception@std@@UAE@XZ			; std::exception::~exception
PUBLIC	?what@exception@std@@UBEPBDXZ			; std::exception::what
PUBLIC	??_Gexception@std@@UAEPAXI@Z			; std::exception::`scalar deleting destructor'
PUBLIC	??0bad_alloc@std@@AAE@QBD@Z			; std::bad_alloc::bad_alloc
PUBLIC	??1bad_alloc@std@@UAE@XZ			; std::bad_alloc::~bad_alloc
PUBLIC	??0bad_alloc@std@@QAE@ABV01@@Z			; std::bad_alloc::bad_alloc
PUBLIC	??_Gbad_alloc@std@@UAEPAXI@Z			; std::bad_alloc::`scalar deleting destructor'
PUBLIC	??0bad_array_new_length@std@@QAE@XZ		; std::bad_array_new_length::bad_array_new_length
PUBLIC	??1bad_array_new_length@std@@UAE@XZ		; std::bad_array_new_length::~bad_array_new_length
PUBLIC	??0bad_array_new_length@std@@QAE@ABV01@@Z	; std::bad_array_new_length::bad_array_new_length
PUBLIC	??_Gbad_array_new_length@std@@UAEPAXI@Z		; std::bad_array_new_length::`scalar deleting destructor'
PUBLIC	?_Throw_bad_array_new_length@std@@YAXXZ		; std::_Throw_bad_array_new_length
PUBLIC	?max@?$numeric_limits@H@std@@SAHXZ		; std::numeric_limits<int>::max
PUBLIC	?_Allocate@_Default_allocate_traits@std@@SAPAXI@Z ; std::_Default_allocate_traits::_Allocate
PUBLIC	?_Adjust_manually_vector_aligned@std@@YAXAAPAXAAI@Z ; std::_Adjust_manually_vector_aligned
PUBLIC	??$_Convert_size@I@std@@YAII@Z			; std::_Convert_size<unsigned int>
PUBLIC	?_Orphan_all@_Container_base0@std@@QAEXXZ	; std::_Container_base0::_Orphan_all
PUBLIC	?_Alloc_proxy@_Container_base0@std@@QAEXABU_Fake_allocator@2@@Z ; std::_Container_base0::_Alloc_proxy
PUBLIC	??0_Fake_proxy_ptr_impl@std@@QAE@ABU_Fake_allocator@1@ABU_Container_base0@1@@Z ; std::_Fake_proxy_ptr_impl::_Fake_proxy_ptr_impl
PUBLIC	?_Release@_Fake_proxy_ptr_impl@std@@QAEXXZ	; std::_Fake_proxy_ptr_impl::_Release
PUBLIC	?length@?$_Narrow_char_traits@DH@std@@SAIQBD@Z	; std::_Narrow_char_traits<char,int>::length
PUBLIC	?copy@?$_Narrow_char_traits@DH@std@@SAPADQADQBDI@Z ; std::_Narrow_char_traits<char,int>::copy
PUBLIC	?move@?$_Narrow_char_traits@DH@std@@SAPADQADQBDI@Z ; std::_Narrow_char_traits<char,int>::move
PUBLIC	?assign@?$_Narrow_char_traits@DH@std@@SAXAADABD@Z ; std::_Narrow_char_traits<char,int>::assign
PUBLIC	?to_int_type@?$_Narrow_char_traits@DH@std@@SAHABD@Z ; std::_Narrow_char_traits<char,int>::to_int_type
PUBLIC	?eq_int_type@?$_Narrow_char_traits@DH@std@@SA_NABH0@Z ; std::_Narrow_char_traits<char,int>::eq_int_type
PUBLIC	?eof@?$_Narrow_char_traits@DH@std@@SAHXZ	; std::_Narrow_char_traits<char,int>::eof
PUBLIC	??0?$allocator@D@std@@QAE@XZ			; std::allocator<char>::allocator<char>
PUBLIC	?deallocate@?$allocator@D@std@@QAEXQADI@Z	; std::allocator<char>::deallocate
PUBLIC	?allocate@?$allocator@D@std@@QAEPADI@Z		; std::allocator<char>::allocate
PUBLIC	?max_size@?$_Default_allocator_traits@V?$allocator@D@std@@@std@@SAIABV?$allocator@D@2@@Z ; std::_Default_allocator_traits<std::allocator<char> >::max_size
PUBLIC	?select_on_container_copy_construction@?$_Default_allocator_traits@V?$allocator@D@std@@@std@@SA?AV?$allocator@D@2@ABV32@@Z ; std::_Default_allocator_traits<std::allocator<char> >::select_on_container_copy_construction
PUBLIC	??0?$_String_val@U?$_Simple_types@D@std@@@std@@QAE@XZ ; std::_String_val<std::_Simple_types<char> >::_String_val<std::_Simple_types<char> >
PUBLIC	?_Myptr@?$_String_val@U?$_Simple_types@D@std@@@std@@QAEPADXZ ; std::_String_val<std::_Simple_types<char> >::_Myptr
PUBLIC	?_Myptr@?$_String_val@U?$_Simple_types@D@std@@@std@@QBEPBDXZ ; std::_String_val<std::_Simple_types<char> >::_Myptr
PUBLIC	?_Large_string_engaged@?$_String_val@U?$_Simple_types@D@std@@@std@@QBE_NXZ ; std::_String_val<std::_Simple_types<char> >::_Large_string_engaged
PUBLIC	??0_Bxty@?$_String_val@U?$_Simple_types@D@std@@@std@@QAE@XZ ; std::_String_val<std::_Simple_types<char> >::_Bxty::_Bxty
PUBLIC	??1_Bxty@?$_String_val@U?$_Simple_types@D@std@@@std@@QAE@XZ ; std::_String_val<std::_Simple_types<char> >::_Bxty::~_Bxty
PUBLIC	??1?$_String_val@U?$_Simple_types@D@std@@@std@@QAE@XZ ; std::_String_val<std::_Simple_types<char> >::~_String_val<std::_Simple_types<char> >
PUBLIC	??0?$basic_string@DU?$char_traits@D@std@@V?$allocator@D@2@@std@@QAE@ABV01@@Z ; std::basic_string<char,std::char_traits<char>,std::allocator<char> >::basic_string<char,std::char_traits<char>,std::allocator<char> >
PUBLIC	??0?$basic_string@DU?$char_traits@D@std@@V?$allocator@D@2@@std@@QAE@QBD@Z ; std::basic_string<char,std::char_traits<char>,std::allocator<char> >::basic_string<char,std::char_traits<char>,std::allocator<char> >
PUBLIC	??0?$basic_string@DU?$char_traits@D@std@@V?$allocator@D@2@@std@@QAE@$$QAV01@@Z ; std::basic_string<char,std::char_traits<char>,std::allocator<char> >::basic_string<char,std::char_traits<char>,std::allocator<char> >
PUBLIC	?_Memcpy_val_from@?$basic_string@DU?$char_traits@D@std@@V?$allocator@D@2@@std@@AAEXABV12@@Z ; std::basic_string<char,std::char_traits<char>,std::allocator<char> >::_Memcpy_val_from
PUBLIC	?_Take_contents@?$basic_string@DU?$char_traits@D@std@@V?$allocator@D@2@@std@@AAEXAAV12@U?$integral_constant@_N$00@2@@Z ; std::basic_string<char,std::char_traits<char>,std::allocator<char> >::_Take_contents
PUBLIC	?_Construct_lv_contents@?$basic_string@DU?$char_traits@D@std@@V?$allocator@D@2@@std@@AAEXABV12@@Z ; std::basic_string<char,std::char_traits<char>,std::allocator<char> >::_Construct_lv_contents
PUBLIC	??1?$basic_string@DU?$char_traits@D@std@@V?$allocator@D@2@@std@@QAE@XZ ; std::basic_string<char,std::char_traits<char>,std::allocator<char> >::~basic_string<char,std::char_traits<char>,std::allocator<char> >
PUBLIC	?append@?$basic_string@DU?$char_traits@D@std@@V?$allocator@D@2@@std@@QAEAAV12@ABV12@@Z ; std::basic_string<char,std::char_traits<char>,std::allocator<char> >::append
PUBLIC	?append@?$basic_string@DU?$char_traits@D@std@@V?$allocator@D@2@@std@@QAEAAV12@QBDI@Z ; std::basic_string<char,std::char_traits<char>,std::allocator<char> >::append
PUBLIC	?append@?$basic_string@DU?$char_traits@D@std@@V?$allocator@D@2@@std@@QAEAAV12@QBD@Z ; std::basic_string<char,std::char_traits<char>,std::allocator<char> >::append
PUBLIC	?assign@?$basic_string@DU?$char_traits@D@std@@V?$allocator@D@2@@std@@QAEAAV12@QBDI@Z ; std::basic_string<char,std::char_traits<char>,std::allocator<char> >::assign
PUBLIC	?assign@?$basic_string@DU?$char_traits@D@std@@V?$allocator@D@2@@std@@QAEAAV12@QBD@Z ; std::basic_string<char,std::char_traits<char>,std::allocator<char> >::assign
PUBLIC	?c_str@?$basic_string@DU?$char_traits@D@std@@V?$allocator@D@2@@std@@QBEPBDXZ ; std::basic_string<char,std::char_traits<char>,std::allocator<char> >::c_str
PUBLIC	?size@?$basic_string@DU?$char_traits@D@std@@V?$allocator@D@2@@std@@QBEIXZ ; std::basic_string<char,std::char_traits<char>,std::allocator<char> >::size
PUBLIC	?max_size@?$basic_string@DU?$char_traits@D@std@@V?$allocator@D@2@@std@@QBEIXZ ; std::basic_string<char,std::char_traits<char>,std::allocator<char> >::max_size
PUBLIC	?empty@?$basic_string@DU?$char_traits@D@std@@V?$allocator@D@2@@std@@QBE_NXZ ; std::basic_string<char,std::char_traits<char>,std::allocator<char> >::empty
PUBLIC	?_Calculate_growth@?$basic_string@DU?$char_traits@D@std@@V?$allocator@D@2@@std@@CAIIII@Z ; std::basic_string<char,std::char_traits<char>,std::allocator<char> >::_Calculate_growth
PUBLIC	?_Calculate_growth@?$basic_string@DU?$char_traits@D@std@@V?$allocator@D@2@@std@@ABEII@Z ; std::basic_string<char,std::char_traits<char>,std::allocator<char> >::_Calculate_growth
PUBLIC	?_Tidy_init@?$basic_string@DU?$char_traits@D@std@@V?$allocator@D@2@@std@@AAEXXZ ; std::basic_string<char,std::char_traits<char>,std::allocator<char> >::_Tidy_init
PUBLIC	?_Tidy_deallocate@?$basic_string@DU?$char_traits@D@std@@V?$allocator@D@2@@std@@AAEXXZ ; std::basic_string<char,std::char_traits<char>,std::allocator<char> >::_Tidy_deallocate
PUBLIC	?_Xlen@?$basic_string@DU?$char_traits@D@std@@V?$allocator@D@2@@std@@CAXXZ ; std::basic_string<char,std::char_traits<char>,std::allocator<char> >::_Xlen
PUBLIC	?_Getal@?$basic_string@DU?$char_traits@D@std@@V?$allocator@D@2@@std@@AAEAAV?$allocator@D@2@XZ ; std::basic_string<char,std::char_traits<char>,std::allocator<char> >::_Getal
PUBLIC	?_Getal@?$basic_string@DU?$char_traits@D@std@@V?$allocator@D@2@@std@@ABEABV?$allocator@D@2@XZ ; std::basic_string<char,std::char_traits<char>,std::allocator<char> >::_Getal
PUBLIC	?_Get_first@?$_Compressed_pair@V?$allocator@D@std@@V?$_String_val@U?$_Simple_types@D@std@@@2@$00@std@@QAEAAV?$allocator@D@2@XZ ; std::_Compressed_pair<std::allocator<char>,std::_String_val<std::_Simple_types<char> >,1>::_Get_first
PUBLIC	?_Get_first@?$_Compressed_pair@V?$allocator@D@std@@V?$_String_val@U?$_Simple_types@D@std@@@2@$00@std@@QBEABV?$allocator@D@2@XZ ; std::_Compressed_pair<std::allocator<char>,std::_String_val<std::_Simple_types<char> >,1>::_Get_first
PUBLIC	??1?$_Compressed_pair@V?$allocator@D@std@@V?$_String_val@U?$_Simple_types@D@std@@@2@$00@std@@QAE@XZ ; std::_Compressed_pair<std::allocator<char>,std::_String_val<std::_Simple_types<char> >,1>::~_Compressed_pair<std::allocator<char>,std::_String_val<std::_Simple_types<char> >,1>
PUBLIC	??0runtime_error@std@@QAE@ABV?$basic_string@DU?$char_traits@D@std@@V?$allocator@D@2@@1@@Z ; std::runtime_error::runtime_error
PUBLIC	??1runtime_error@std@@UAE@XZ			; std::runtime_error::~runtime_error
PUBLIC	??0runtime_error@std@@QAE@ABV01@@Z		; std::runtime_error::runtime_error
PUBLIC	??_Gruntime_error@std@@UAEPAXI@Z		; std::runtime_error::`scalar deleting destructor'
PUBLIC	?make_error_code@std@@YA?AVerror_code@1@W4io_errc@1@@Z ; std::make_error_code
PUBLIC	?iostream_category@std@@YAABVerror_category@1@XZ ; std::iostream_category
PUBLIC	??0error_category@std@@QAE@XZ			; std::error_category::error_category
PUBLIC	??1error_category@std@@UAE@XZ			; std::error_category::~error_category
PUBLIC	?default_error_condition@error_category@std@@UBE?AVerror_condition@2@H@Z ; std::error_category::default_error_condition
PUBLIC	?equivalent@error_category@std@@UBE_NHABVerror_condition@2@@Z ; std::error_category::equivalent
PUBLIC	?equivalent@error_category@std@@UBE_NABVerror_code@2@H@Z ; std::error_category::equivalent
PUBLIC	??8error_category@std@@QBE_NABV01@@Z		; std::error_category::operator==
PUBLIC	??0error_code@std@@QAE@HABVerror_category@1@@Z	; std::error_code::error_code
PUBLIC	?value@error_code@std@@QBEHXZ			; std::error_code::value
PUBLIC	?category@error_code@std@@QBEABVerror_category@2@XZ ; std::error_code::category
PUBLIC	?message@error_code@std@@QBE?AV?$basic_string@DU?$char_traits@D@std@@V?$allocator@D@2@@2@XZ ; std::error_code::message
PUBLIC	??0error_condition@std@@QAE@HABVerror_category@1@@Z ; std::error_condition::error_condition
PUBLIC	?value@error_condition@std@@QBEHXZ		; std::error_condition::value
PUBLIC	?category@error_condition@std@@QBEABVerror_category@2@XZ ; std::error_condition::category
PUBLIC	??8std@@YA_NABVerror_condition@0@0@Z		; std::operator==
PUBLIC	?_Makestr@_System_error@std@@CA?AV?$basic_string@DU?$char_traits@D@std@@V?$allocator@D@2@@2@Verror_code@2@V32@@Z ; std::_System_error::_Makestr
PUBLIC	??0_System_error@std@@IAE@Verror_code@1@ABV?$basic_string@DU?$char_traits@D@std@@V?$allocator@D@2@@1@@Z ; std::_System_error::_System_error
PUBLIC	??1_System_error@std@@UAE@XZ			; std::_System_error::~_System_error
PUBLIC	??0_System_error@std@@QAE@ABV01@@Z		; std::_System_error::_System_error
PUBLIC	??_G_System_error@std@@UAEPAXI@Z		; std::_System_error::`scalar deleting destructor'
PUBLIC	??0system_error@std@@QAE@Verror_code@1@PBD@Z	; std::system_error::system_error
PUBLIC	??1system_error@std@@UAE@XZ			; std::system_error::~system_error
PUBLIC	??0system_error@std@@QAE@ABV01@@Z		; std::system_error::system_error
PUBLIC	??_Gsystem_error@std@@UAEPAXI@Z			; std::system_error::`scalar deleting destructor'
PUBLIC	??0_Generic_error_category@std@@QAE@XZ		; std::_Generic_error_category::_Generic_error_category
PUBLIC	?name@_Generic_error_category@std@@UBEPBDXZ	; std::_Generic_error_category::name
PUBLIC	?message@_Generic_error_category@std@@UBE?AV?$basic_string@DU?$char_traits@D@std@@V?$allocator@D@2@@2@H@Z ; std::_Generic_error_category::message
PUBLIC	??1_Generic_error_category@std@@UAE@XZ		; std::_Generic_error_category::~_Generic_error_category
PUBLIC	??_G_Generic_error_category@std@@UAEPAXI@Z	; std::_Generic_error_category::`scalar deleting destructor'
PUBLIC	??0_Iostream_error_category@std@@QAE@XZ		; std::_Iostream_error_category::_Iostream_error_category
PUBLIC	?name@_Iostream_error_category@std@@UBEPBDXZ	; std::_Iostream_error_category::name
PUBLIC	?message@_Iostream_error_category@std@@UBE?AV?$basic_string@DU?$char_traits@D@std@@V?$allocator@D@2@@2@H@Z ; std::_Iostream_error_category::message
PUBLIC	??1_Iostream_error_category@std@@UAE@XZ		; std::_Iostream_error_category::~_Iostream_error_category
PUBLIC	??_G_Iostream_error_category@std@@UAEPAXI@Z	; std::_Iostream_error_category::`scalar deleting destructor'
PUBLIC	??$_Immortalize@V_Iostream_error_category@std@@@std@@YAAAV_Iostream_error_category@0@XZ ; std::_Immortalize<std::_Iostream_error_category>
PUBLIC	??0failure@ios_base@std@@QAE@PBDABVerror_code@2@@Z ; std::ios_base::failure::failure
PUBLIC	??1failure@ios_base@std@@UAE@XZ			; std::ios_base::failure::~failure
PUBLIC	??0failure@ios_base@std@@QAE@ABV012@@Z		; std::ios_base::failure::failure
PUBLIC	??_Gfailure@ios_base@std@@UAEPAXI@Z		; std::ios_base::failure::`scalar deleting destructor'
PUBLIC	?clear@ios_base@std@@QAEXH_N@Z			; std::ios_base::clear
PUBLIC	?rdstate@ios_base@std@@QBEHXZ			; std::ios_base::rdstate
PUBLIC	?good@ios_base@std@@QBE_NXZ			; std::ios_base::good
PUBLIC	?flags@ios_base@std@@QBEHXZ			; std::ios_base::flags
PUBLIC	?width@ios_base@std@@QBE_JXZ			; std::ios_base::width
PUBLIC	?width@ios_base@std@@QAE_J_J@Z			; std::ios_base::width
PUBLIC	?f@@YAXXZ					; f
PUBLIC	_main
PUBLIC	?clear@?$basic_ios@DU?$char_traits@D@std@@@std@@QAEXH_N@Z ; std::basic_ios<char,std::char_traits<char> >::clear
PUBLIC	?setstate@?$basic_ios@DU?$char_traits@D@std@@@std@@QAEXH_N@Z ; std::basic_ios<char,std::char_traits<char> >::setstate
PUBLIC	?tie@?$basic_ios@DU?$char_traits@D@std@@@std@@QBEPAV?$basic_ostream@DU?$char_traits@D@std@@@2@XZ ; std::basic_ios<char,std::char_traits<char> >::tie
PUBLIC	?rdbuf@?$basic_ios@DU?$char_traits@D@std@@@std@@QBEPAV?$basic_streambuf@DU?$char_traits@D@std@@@2@XZ ; std::basic_ios<char,std::char_traits<char> >::rdbuf
PUBLIC	?fill@?$basic_ios@DU?$char_traits@D@std@@@std@@QBEDXZ ; std::basic_ios<char,std::char_traits<char> >::fill
PUBLIC	?_Osfx@?$basic_ostream@DU?$char_traits@D@std@@@std@@QAEXXZ ; std::basic_ostream<char,std::char_traits<char> >::_Osfx
PUBLIC	?flush@?$basic_ostream@DU?$char_traits@D@std@@@std@@QAEAAV12@XZ ; std::basic_ostream<char,std::char_traits<char> >::flush
PUBLIC	??$?6U?$char_traits@D@std@@@std@@YAAAV?$basic_ostream@DU?$char_traits@D@std@@@0@AAV10@PBD@Z ; std::operator<<<std::char_traits<char> >
PUBLIC	??$_Min_value@I@std@@YAABIABI0@Z		; std::_Min_value<unsigned int>
PUBLIC	??$_Unfancy@D@std@@YAPADPAD@Z			; std::_Unfancy<char>
PUBLIC	??$move@AAV?$allocator@D@std@@@std@@YA$$QAV?$allocator@D@0@AAV10@@Z ; std::move<std::allocator<char> &>
PUBLIC	??$?0V?$allocator@D@std@@$$V@?$_Compressed_pair@V?$allocator@D@std@@V?$_String_val@U?$_Simple_types@D@std@@@2@$00@std@@QAE@U_One_then_variadic_args_t@1@$$QAV?$allocator@D@1@@Z ; std::_Compressed_pair<std::allocator<char>,std::_String_val<std::_Simple_types<char> >,1>::_Compressed_pair<std::allocator<char>,std::_String_val<std::_Simple_types<char> >,1><std::allocator<char> >
PUBLIC	??$?0$$V@?$_Compressed_pair@V?$allocator@D@std@@V?$_String_val@U?$_Simple_types@D@std@@@2@$00@std@@QAE@U_Zero_then_variadic_args_t@1@@Z ; std::_Compressed_pair<std::allocator<char>,std::_String_val<std::_Simple_types<char> >,1>::_Compressed_pair<std::allocator<char>,std::_String_val<std::_Simple_types<char> >,1><>
PUBLIC	??$_Destroy_in_place@PAD@std@@YAXAAPAD@Z	; std::_Destroy_in_place<char *>
PUBLIC	??$_Max_value@I@std@@YAABIABI0@Z		; std::_Max_value<unsigned int>
PUBLIC	??R<lambda_9366063389c5f42a00a5088cf24e69de>@@QBEXQADIQBD@Z ; <lambda_9366063389c5f42a00a5088cf24e69de>::operator()
PUBLIC	??$_Reallocate_for@V<lambda_9366063389c5f42a00a5088cf24e69de>@@PBD@?$basic_string@DU?$char_traits@D@std@@V?$allocator@D@2@@std@@AAEAAV01@IV<lambda_9366063389c5f42a00a5088cf24e69de>@@PBD@Z ; std::basic_string<char,std::char_traits<char>,std::allocator<char> >::_Reallocate_for<<lambda_9366063389c5f42a00a5088cf24e69de>,char const *>
PUBLIC	??R<lambda_ab246b20b9526e2ef7792587e4298a77>@@QBEXQADQBDI1I@Z ; <lambda_ab246b20b9526e2ef7792587e4298a77>::operator()
PUBLIC	??$_Reallocate_grow_by@V<lambda_ab246b20b9526e2ef7792587e4298a77>@@PBDI@?$basic_string@DU?$char_traits@D@std@@V?$allocator@D@2@@std@@AAEAAV01@IV<lambda_ab246b20b9526e2ef7792587e4298a77>@@PBDI@Z ; std::basic_string<char,std::char_traits<char>,std::allocator<char> >::_Reallocate_grow_by<<lambda_ab246b20b9526e2ef7792587e4298a77>,char const *,unsigned int>
PUBLIC	??$_Construct_in_place@PADABQAD@std@@YAXAAPADABQAD@Z ; std::_Construct_in_place<char *,char * const &>
PUBLIC	??$_Get_size_of_n@$00@std@@YAII@Z		; std::_Get_size_of_n<1>
PUBLIC	??$_Allocate@$07U_Default_allocate_traits@std@@$0A@@std@@YAPAXI@Z ; std::_Allocate<8,std::_Default_allocate_traits,0>
PUBLIC	??$_Deallocate@$07$0A@@std@@YAXPAXI@Z		; std::_Deallocate<8,0>
PUBLIC	??$addressof@V?$_String_val@U?$_Simple_types@D@std@@@std@@@std@@YAPAV?$_String_val@U?$_Simple_types@D@std@@@0@AAV10@@Z ; std::addressof<std::_String_val<std::_Simple_types<char> > >
PUBLIC	??$addressof@$$CBV?$_String_val@U?$_Simple_types@D@std@@@std@@@std@@YAPBV?$_String_val@U?$_Simple_types@D@std@@@0@ABV10@@Z ; std::addressof<std::_String_val<std::_Simple_types<char> > const >
PUBLIC	??$_Immortalize_impl@V_Iostream_error_category@std@@@std@@YGHPAX0PAPAX@Z ; std::_Immortalize_impl<std::_Iostream_error_category>
PUBLIC	??0_Sentry_base@?$basic_ostream@DU?$char_traits@D@std@@@std@@QAE@AAV12@@Z ; std::basic_ostream<char,std::char_traits<char> >::_Sentry_base::_Sentry_base
PUBLIC	??1_Sentry_base@?$basic_ostream@DU?$char_traits@D@std@@@std@@QAE@XZ ; std::basic_ostream<char,std::char_traits<char> >::_Sentry_base::~_Sentry_base
PUBLIC	??0sentry@?$basic_ostream@DU?$char_traits@D@std@@@std@@QAE@AAV12@@Z ; std::basic_ostream<char,std::char_traits<char> >::sentry::sentry
PUBLIC	??1sentry@?$basic_ostream@DU?$char_traits@D@std@@@std@@QAE@XZ ; std::basic_ostream<char,std::char_traits<char> >::sentry::~sentry
PUBLIC	??Bsentry@?$basic_ostream@DU?$char_traits@D@std@@@std@@QBE_NXZ ; std::basic_ostream<char,std::char_traits<char> >::sentry::operator bool
PUBLIC	?pubsync@?$basic_streambuf@DU?$char_traits@D@std@@@std@@QAEHXZ ; std::basic_streambuf<char,std::char_traits<char> >::pubsync
PUBLIC	?sputc@?$basic_streambuf@DU?$char_traits@D@std@@@std@@QAEHD@Z ; std::basic_streambuf<char,std::char_traits<char> >::sputc
PUBLIC	?sputn@?$basic_streambuf@DU?$char_traits@D@std@@@std@@QAE_JPBD_J@Z ; std::basic_streambuf<char,std::char_traits<char> >::sputn
PUBLIC	?_Pninc@?$basic_streambuf@DU?$char_traits@D@std@@@std@@IAEPADXZ ; std::basic_streambuf<char,std::char_traits<char> >::_Pninc
PUBLIC	?_Pnavail@?$basic_streambuf@DU?$char_traits@D@std@@@std@@IBE_JXZ ; std::basic_streambuf<char,std::char_traits<char> >::_Pnavail
PUBLIC	??$forward@V?$allocator@D@std@@@std@@YA$$QAV?$allocator@D@0@AAV10@@Z ; std::forward<std::allocator<char> >
PUBLIC	??$addressof@PAD@std@@YAPAPADAAPAD@Z		; std::addressof<char *>
PUBLIC	??$forward@ABQAD@std@@YAABQADABQAD@Z		; std::forward<char * const &>
PUBLIC	??$_Allocate_manually_vector_aligned@U_Default_allocate_traits@std@@@std@@YAPAXI@Z ; std::_Allocate_manually_vector_aligned<std::_Default_allocate_traits>
PUBLIC	??_7exception@std@@6B@				; std::exception::`vftable'
PUBLIC	??_C@_0BC@EOODALEL@Unknown?5exception@		; `string'
PUBLIC	??_7bad_alloc@std@@6B@				; std::bad_alloc::`vftable'
PUBLIC	??_7bad_array_new_length@std@@6B@		; std::bad_array_new_length::`vftable'
PUBLIC	??_C@_0BF@KINCDENJ@bad?5array?5new?5length@	; `string'
PUBLIC	__TI3?AVbad_array_new_length@std@@
PUBLIC	__CTA3?AVbad_array_new_length@std@@
PUBLIC	??_R0?AVbad_array_new_length@std@@@8		; std::bad_array_new_length `RTTI Type Descriptor'
PUBLIC	__CT??_R0?AVbad_array_new_length@std@@@8??0bad_array_new_length@std@@QAE@ABV01@@Z12
PUBLIC	??_R0?AVbad_alloc@std@@@8			; std::bad_alloc `RTTI Type Descriptor'
PUBLIC	__CT??_R0?AVbad_alloc@std@@@8??0bad_alloc@std@@QAE@ABV01@@Z12
PUBLIC	??_R0?AVexception@std@@@8			; std::exception `RTTI Type Descriptor'
PUBLIC	__CT??_R0?AVexception@std@@@8??0exception@std@@QAE@ABV01@@Z12
PUBLIC	??_7runtime_error@std@@6B@			; std::runtime_error::`vftable'
PUBLIC	??_R0?AVruntime_error@std@@@8			; std::runtime_error `RTTI Type Descriptor'
PUBLIC	__CT??_R0?AVruntime_error@std@@@8??0runtime_error@std@@QAE@ABV01@@Z12
PUBLIC	??_7_System_error@std@@6B@			; std::_System_error::`vftable'
PUBLIC	??_C@_02LMMGGCAJ@?3?5@				; `string'
PUBLIC	??_7system_error@std@@6B@			; std::system_error::`vftable'
PUBLIC	??_R0?AVsystem_error@std@@@8			; std::system_error `RTTI Type Descriptor'
PUBLIC	__CT??_R0?AVsystem_error@std@@@8??0system_error@std@@QAE@ABV01@@Z20
PUBLIC	??_R0?AV_System_error@std@@@8			; std::_System_error `RTTI Type Descriptor'
PUBLIC	__CT??_R0?AV_System_error@std@@@8??0_System_error@std@@QAE@ABV01@@Z20
PUBLIC	??_7_Generic_error_category@std@@6B@		; std::_Generic_error_category::`vftable'
PUBLIC	??_C@_07DCLBNMLN@generic@			; `string'
PUBLIC	??_7_Iostream_error_category@std@@6B@		; std::_Iostream_error_category::`vftable'
PUBLIC	??_C@_08LLGCOLLL@iostream@			; `string'
PUBLIC	??_C@_0BG@PADBLCHM@iostream?5stream?5error@	; `string'
PUBLIC	??_7failure@ios_base@std@@6B@			; std::ios_base::failure::`vftable'
PUBLIC	??_C@_0BF@PHHKMMFD@ios_base?3?3badbit?5set@	; `string'
PUBLIC	??_C@_0BG@FMKFHCIL@ios_base?3?3failbit?5set@	; `string'
PUBLIC	??_C@_0BF@OOHOMBOF@ios_base?3?3eofbit?5set@	; `string'
PUBLIC	__TI5?AVfailure@ios_base@std@@
PUBLIC	__CTA5?AVfailure@ios_base@std@@
PUBLIC	??_R0?AVfailure@ios_base@std@@@8		; std::ios_base::failure `RTTI Type Descriptor'
PUBLIC	__CT??_R0?AVfailure@ios_base@std@@@8??0failure@ios_base@std@@QAE@ABV012@@Z20
PUBLIC	?_Flag@?1???$_Immortalize@V_Iostream_error_category@std@@@std@@YAAAV_Iostream_error_category@1@XZ@4PAXA ; `std::_Immortalize<std::_Iostream_error_category>'::`2'::_Flag
PUBLIC	?_Storage@?1???$_Immortalize@V_Iostream_error_category@std@@@std@@YAAAV_Iostream_error_category@1@XZ@4T?$_Align_type@H$07@1@A ; `std::_Immortalize<std::_Iostream_error_category>'::`2'::_Storage
PUBLIC	??_C@_0BA@JFNIOLAK@string?5too?5long@		; `string'
PUBLIC	??_R4exception@std@@6B@				; std::exception::`RTTI Complete Object Locator'
PUBLIC	??_R3exception@std@@8				; std::exception::`RTTI Class Hierarchy Descriptor'
PUBLIC	??_R2exception@std@@8				; std::exception::`RTTI Base Class Array'
PUBLIC	??_R1A@?0A@EA@exception@std@@8			; std::exception::`RTTI Base Class Descriptor at (0,-1,0,64)'
PUBLIC	??_R4bad_alloc@std@@6B@				; std::bad_alloc::`RTTI Complete Object Locator'
PUBLIC	??_R3bad_alloc@std@@8				; std::bad_alloc::`RTTI Class Hierarchy Descriptor'
PUBLIC	??_R2bad_alloc@std@@8				; std::bad_alloc::`RTTI Base Class Array'
PUBLIC	??_R1A@?0A@EA@bad_alloc@std@@8			; std::bad_alloc::`RTTI Base Class Descriptor at (0,-1,0,64)'
PUBLIC	??_R4bad_array_new_length@std@@6B@		; std::bad_array_new_length::`RTTI Complete Object Locator'
PUBLIC	??_R3bad_array_new_length@std@@8		; std::bad_array_new_length::`RTTI Class Hierarchy Descriptor'
PUBLIC	??_R2bad_array_new_length@std@@8		; std::bad_array_new_length::`RTTI Base Class Array'
PUBLIC	??_R1A@?0A@EA@bad_array_new_length@std@@8	; std::bad_array_new_length::`RTTI Base Class Descriptor at (0,-1,0,64)'
PUBLIC	??_R4runtime_error@std@@6B@			; std::runtime_error::`RTTI Complete Object Locator'
PUBLIC	??_R3runtime_error@std@@8			; std::runtime_error::`RTTI Class Hierarchy Descriptor'
PUBLIC	??_R2runtime_error@std@@8			; std::runtime_error::`RTTI Base Class Array'
PUBLIC	??_R1A@?0A@EA@runtime_error@std@@8		; std::runtime_error::`RTTI Base Class Descriptor at (0,-1,0,64)'
PUBLIC	??_R0?AVerror_category@std@@@8			; std::error_category `RTTI Type Descriptor'
PUBLIC	??_R3error_category@std@@8			; std::error_category::`RTTI Class Hierarchy Descriptor'
PUBLIC	??_R2error_category@std@@8			; std::error_category::`RTTI Base Class Array'
PUBLIC	??_R1A@?0A@EA@error_category@std@@8		; std::error_category::`RTTI Base Class Descriptor at (0,-1,0,64)'
PUBLIC	??_R4_System_error@std@@6B@			; std::_System_error::`RTTI Complete Object Locator'
PUBLIC	??_R3_System_error@std@@8			; std::_System_error::`RTTI Class Hierarchy Descriptor'
PUBLIC	??_R2_System_error@std@@8			; std::_System_error::`RTTI Base Class Array'
PUBLIC	??_R1A@?0A@EA@_System_error@std@@8		; std::_System_error::`RTTI Base Class Descriptor at (0,-1,0,64)'
PUBLIC	??_R4system_error@std@@6B@			; std::system_error::`RTTI Complete Object Locator'
PUBLIC	??_R3system_error@std@@8			; std::system_error::`RTTI Class Hierarchy Descriptor'
PUBLIC	??_R2system_error@std@@8			; std::system_error::`RTTI Base Class Array'
PUBLIC	??_R1A@?0A@EA@system_error@std@@8		; std::system_error::`RTTI Base Class Descriptor at (0,-1,0,64)'
PUBLIC	??_R4_Generic_error_category@std@@6B@		; std::_Generic_error_category::`RTTI Complete Object Locator'
PUBLIC	??_R0?AV_Generic_error_category@std@@@8		; std::_Generic_error_category `RTTI Type Descriptor'
PUBLIC	??_R3_Generic_error_category@std@@8		; std::_Generic_error_category::`RTTI Class Hierarchy Descriptor'
PUBLIC	??_R2_Generic_error_category@std@@8		; std::_Generic_error_category::`RTTI Base Class Array'
PUBLIC	??_R1A@?0A@EA@_Generic_error_category@std@@8	; std::_Generic_error_category::`RTTI Base Class Descriptor at (0,-1,0,64)'
PUBLIC	??_R4_Iostream_error_category@std@@6B@		; std::_Iostream_error_category::`RTTI Complete Object Locator'
PUBLIC	??_R0?AV_Iostream_error_category@std@@@8	; std::_Iostream_error_category `RTTI Type Descriptor'
PUBLIC	??_R3_Iostream_error_category@std@@8		; std::_Iostream_error_category::`RTTI Class Hierarchy Descriptor'
PUBLIC	??_R2_Iostream_error_category@std@@8		; std::_Iostream_error_category::`RTTI Base Class Array'
PUBLIC	??_R1A@?0A@EA@_Iostream_error_category@std@@8	; std::_Iostream_error_category::`RTTI Base Class Descriptor at (0,-1,0,64)'
PUBLIC	??_R4failure@ios_base@std@@6B@			; std::ios_base::failure::`RTTI Complete Object Locator'
PUBLIC	??_R3failure@ios_base@std@@8			; std::ios_base::failure::`RTTI Class Hierarchy Descriptor'
PUBLIC	??_R2failure@ios_base@std@@8			; std::ios_base::failure::`RTTI Base Class Array'
PUBLIC	??_R1A@?0A@EA@failure@ios_base@std@@8		; std::ios_base::failure::`RTTI Base Class Descriptor at (0,-1,0,64)'
EXTRN	??2@YAPAXI@Z:PROC				; operator new
EXTRN	??3@YAXPAXI@Z:PROC				; operator delete
EXTRN	__invalid_parameter_noinfo_noreturn:PROC
EXTRN	?uncaught_exception@std@@YA_NXZ:PROC		; std::uncaught_exception
EXTRN	_terminate:PROC
EXTRN	___std_exception_copy:PROC
EXTRN	___std_exception_destroy:PROC
EXTRN	??_Eexception@std@@UAEPAXI@Z:PROC		; std::exception::`vector deleting destructor'
EXTRN	??_Ebad_alloc@std@@UAEPAXI@Z:PROC		; std::bad_alloc::`vector deleting destructor'
EXTRN	??_Ebad_array_new_length@std@@UAEPAXI@Z:PROC	; std::bad_array_new_length::`vector deleting destructor'
EXTRN	_memcpy:PROC
EXTRN	_memmove:PROC
EXTRN	_strlen:PROC
EXTRN	?_Xlength_error@std@@YAXPBD@Z:PROC		; std::_Xlength_error
EXTRN	??_Eruntime_error@std@@UAEPAXI@Z:PROC		; std::runtime_error::`vector deleting destructor'
EXTRN	?_Execute_once@std@@YAHAAUonce_flag@1@P6GHPAX1PAPAX@Z1@Z:PROC ; std::_Execute_once
EXTRN	??_E_System_error@std@@UAEPAXI@Z:PROC		; std::_System_error::`vector deleting destructor'
EXTRN	??_Esystem_error@std@@UAEPAXI@Z:PROC		; std::system_error::`vector deleting destructor'
EXTRN	?_Syserror_map@std@@YAPBDH@Z:PROC		; std::_Syserror_map
EXTRN	??_E_Generic_error_category@std@@UAEPAXI@Z:PROC	; std::_Generic_error_category::`vector deleting destructor'
EXTRN	??_E_Iostream_error_category@std@@UAEPAXI@Z:PROC ; std::_Iostream_error_category::`vector deleting destructor'
EXTRN	??_Efailure@ios_base@std@@UAEPAXI@Z:PROC	; std::ios_base::failure::`vector deleting destructor'
EXTRN	@__security_check_cookie@4:PROC
EXTRN	__CxxThrowException@8:PROC
EXTRN	___CxxFrameHandler3:PROC
EXTRN	??_7type_info@@6B@:QWORD			; type_info::`vftable'
EXTRN	?cout@std@@3V?$basic_ostream@DU?$char_traits@D@std@@@1@A:BYTE ; std::cout
EXTRN	___security_cookie:DWORD
;	COMDAT ?_Flag@?1???$_Immortalize@V_Iostream_error_category@std@@@std@@YAAAV_Iostream_error_category@1@XZ@4PAXA
_BSS	SEGMENT
?_Flag@?1???$_Immortalize@V_Iostream_error_category@std@@@std@@YAAAV_Iostream_error_category@1@XZ@4PAXA DD 01H DUP (?) ; `std::_Immortalize<std::_Iostream_error_category>'::`2'::_Flag
_BSS	ENDS
;	COMDAT ?_Storage@?1???$_Immortalize@V_Iostream_error_category@std@@@std@@YAAAV_Iostream_error_category@1@XZ@4T?$_Align_type@H$07@1@A
_BSS	SEGMENT
?_Storage@?1???$_Immortalize@V_Iostream_error_category@std@@@std@@YAAAV_Iostream_error_category@1@XZ@4T?$_Align_type@H$07@1@A DQ 01H DUP (?) ; `std::_Immortalize<std::_Iostream_error_category>'::`2'::_Storage
_BSS	ENDS
;	COMDAT ??_R1A@?0A@EA@failure@ios_base@std@@8
rdata$r	SEGMENT
??_R1A@?0A@EA@failure@ios_base@std@@8 DD FLAT:??_R0?AVfailure@ios_base@std@@@8 ; std::ios_base::failure::`RTTI Base Class Descriptor at (0,-1,0,64)'
	DD	04H
	DD	00H
	DD	0ffffffffH
	DD	00H
	DD	040H
	DD	FLAT:??_R3failure@ios_base@std@@8
rdata$r	ENDS
;	COMDAT ??_R2failure@ios_base@std@@8
rdata$r	SEGMENT
??_R2failure@ios_base@std@@8 DD FLAT:??_R1A@?0A@EA@failure@ios_base@std@@8 ; std::ios_base::failure::`RTTI Base Class Array'
	DD	FLAT:??_R1A@?0A@EA@system_error@std@@8
	DD	FLAT:??_R1A@?0A@EA@_System_error@std@@8
	DD	FLAT:??_R1A@?0A@EA@runtime_error@std@@8
	DD	FLAT:??_R1A@?0A@EA@exception@std@@8
rdata$r	ENDS
;	COMDAT ??_R3failure@ios_base@std@@8
rdata$r	SEGMENT
??_R3failure@ios_base@std@@8 DD 00H			; std::ios_base::failure::`RTTI Class Hierarchy Descriptor'
	DD	00H
	DD	05H
	DD	FLAT:??_R2failure@ios_base@std@@8
rdata$r	ENDS
;	COMDAT ??_R4failure@ios_base@std@@6B@
rdata$r	SEGMENT
??_R4failure@ios_base@std@@6B@ DD 00H			; std::ios_base::failure::`RTTI Complete Object Locator'
	DD	00H
	DD	00H
	DD	FLAT:??_R0?AVfailure@ios_base@std@@@8
	DD	FLAT:??_R3failure@ios_base@std@@8
rdata$r	ENDS
;	COMDAT ??_R1A@?0A@EA@_Iostream_error_category@std@@8
rdata$r	SEGMENT
??_R1A@?0A@EA@_Iostream_error_category@std@@8 DD FLAT:??_R0?AV_Iostream_error_category@std@@@8 ; std::_Iostream_error_category::`RTTI Base Class Descriptor at (0,-1,0,64)'
	DD	02H
	DD	00H
	DD	0ffffffffH
	DD	00H
	DD	040H
	DD	FLAT:??_R3_Iostream_error_category@std@@8
rdata$r	ENDS
;	COMDAT ??_R2_Iostream_error_category@std@@8
rdata$r	SEGMENT
??_R2_Iostream_error_category@std@@8 DD FLAT:??_R1A@?0A@EA@_Iostream_error_category@std@@8 ; std::_Iostream_error_category::`RTTI Base Class Array'
	DD	FLAT:??_R1A@?0A@EA@_Generic_error_category@std@@8
	DD	FLAT:??_R1A@?0A@EA@error_category@std@@8
rdata$r	ENDS
;	COMDAT ??_R3_Iostream_error_category@std@@8
rdata$r	SEGMENT
??_R3_Iostream_error_category@std@@8 DD 00H		; std::_Iostream_error_category::`RTTI Class Hierarchy Descriptor'
	DD	00H
	DD	03H
	DD	FLAT:??_R2_Iostream_error_category@std@@8
rdata$r	ENDS
;	COMDAT ??_R0?AV_Iostream_error_category@std@@@8
data$r	SEGMENT
??_R0?AV_Iostream_error_category@std@@@8 DD FLAT:??_7type_info@@6B@ ; std::_Iostream_error_category `RTTI Type Descriptor'
	DD	00H
	DB	'.?AV_Iostream_error_category@std@@', 00H
data$r	ENDS
;	COMDAT ??_R4_Iostream_error_category@std@@6B@
rdata$r	SEGMENT
??_R4_Iostream_error_category@std@@6B@ DD 00H		; std::_Iostream_error_category::`RTTI Complete Object Locator'
	DD	00H
	DD	00H
	DD	FLAT:??_R0?AV_Iostream_error_category@std@@@8
	DD	FLAT:??_R3_Iostream_error_category@std@@8
rdata$r	ENDS
;	COMDAT ??_R1A@?0A@EA@_Generic_error_category@std@@8
rdata$r	SEGMENT
??_R1A@?0A@EA@_Generic_error_category@std@@8 DD FLAT:??_R0?AV_Generic_error_category@std@@@8 ; std::_Generic_error_category::`RTTI Base Class Descriptor at (0,-1,0,64)'
	DD	01H
	DD	00H
	DD	0ffffffffH
	DD	00H
	DD	040H
	DD	FLAT:??_R3_Generic_error_category@std@@8
rdata$r	ENDS
;	COMDAT ??_R2_Generic_error_category@std@@8
rdata$r	SEGMENT
??_R2_Generic_error_category@std@@8 DD FLAT:??_R1A@?0A@EA@_Generic_error_category@std@@8 ; std::_Generic_error_category::`RTTI Base Class Array'
	DD	FLAT:??_R1A@?0A@EA@error_category@std@@8
rdata$r	ENDS
;	COMDAT ??_R3_Generic_error_category@std@@8
rdata$r	SEGMENT
??_R3_Generic_error_category@std@@8 DD 00H		; std::_Generic_error_category::`RTTI Class Hierarchy Descriptor'
	DD	00H
	DD	02H
	DD	FLAT:??_R2_Generic_error_category@std@@8
rdata$r	ENDS
;	COMDAT ??_R0?AV_Generic_error_category@std@@@8
data$r	SEGMENT
??_R0?AV_Generic_error_category@std@@@8 DD FLAT:??_7type_info@@6B@ ; std::_Generic_error_category `RTTI Type Descriptor'
	DD	00H
	DB	'.?AV_Generic_error_category@std@@', 00H
data$r	ENDS
;	COMDAT ??_R4_Generic_error_category@std@@6B@
rdata$r	SEGMENT
??_R4_Generic_error_category@std@@6B@ DD 00H		; std::_Generic_error_category::`RTTI Complete Object Locator'
	DD	00H
	DD	00H
	DD	FLAT:??_R0?AV_Generic_error_category@std@@@8
	DD	FLAT:??_R3_Generic_error_category@std@@8
rdata$r	ENDS
;	COMDAT ??_R1A@?0A@EA@system_error@std@@8
rdata$r	SEGMENT
??_R1A@?0A@EA@system_error@std@@8 DD FLAT:??_R0?AVsystem_error@std@@@8 ; std::system_error::`RTTI Base Class Descriptor at (0,-1,0,64)'
	DD	03H
	DD	00H
	DD	0ffffffffH
	DD	00H
	DD	040H
	DD	FLAT:??_R3system_error@std@@8
rdata$r	ENDS
;	COMDAT ??_R2system_error@std@@8
rdata$r	SEGMENT
??_R2system_error@std@@8 DD FLAT:??_R1A@?0A@EA@system_error@std@@8 ; std::system_error::`RTTI Base Class Array'
	DD	FLAT:??_R1A@?0A@EA@_System_error@std@@8
	DD	FLAT:??_R1A@?0A@EA@runtime_error@std@@8
	DD	FLAT:??_R1A@?0A@EA@exception@std@@8
rdata$r	ENDS
;	COMDAT ??_R3system_error@std@@8
rdata$r	SEGMENT
??_R3system_error@std@@8 DD 00H				; std::system_error::`RTTI Class Hierarchy Descriptor'
	DD	00H
	DD	04H
	DD	FLAT:??_R2system_error@std@@8
rdata$r	ENDS
;	COMDAT ??_R4system_error@std@@6B@
rdata$r	SEGMENT
??_R4system_error@std@@6B@ DD 00H			; std::system_error::`RTTI Complete Object Locator'
	DD	00H
	DD	00H
	DD	FLAT:??_R0?AVsystem_error@std@@@8
	DD	FLAT:??_R3system_error@std@@8
rdata$r	ENDS
;	COMDAT ??_R1A@?0A@EA@_System_error@std@@8
rdata$r	SEGMENT
??_R1A@?0A@EA@_System_error@std@@8 DD FLAT:??_R0?AV_System_error@std@@@8 ; std::_System_error::`RTTI Base Class Descriptor at (0,-1,0,64)'
	DD	02H
	DD	00H
	DD	0ffffffffH
	DD	00H
	DD	040H
	DD	FLAT:??_R3_System_error@std@@8
rdata$r	ENDS
;	COMDAT ??_R2_System_error@std@@8
rdata$r	SEGMENT
??_R2_System_error@std@@8 DD FLAT:??_R1A@?0A@EA@_System_error@std@@8 ; std::_System_error::`RTTI Base Class Array'
	DD	FLAT:??_R1A@?0A@EA@runtime_error@std@@8
	DD	FLAT:??_R1A@?0A@EA@exception@std@@8
rdata$r	ENDS
;	COMDAT ??_R3_System_error@std@@8
rdata$r	SEGMENT
??_R3_System_error@std@@8 DD 00H			; std::_System_error::`RTTI Class Hierarchy Descriptor'
	DD	00H
	DD	03H
	DD	FLAT:??_R2_System_error@std@@8
rdata$r	ENDS
;	COMDAT ??_R4_System_error@std@@6B@
rdata$r	SEGMENT
??_R4_System_error@std@@6B@ DD 00H			; std::_System_error::`RTTI Complete Object Locator'
	DD	00H
	DD	00H
	DD	FLAT:??_R0?AV_System_error@std@@@8
	DD	FLAT:??_R3_System_error@std@@8
rdata$r	ENDS
;	COMDAT ??_R1A@?0A@EA@error_category@std@@8
rdata$r	SEGMENT
??_R1A@?0A@EA@error_category@std@@8 DD FLAT:??_R0?AVerror_category@std@@@8 ; std::error_category::`RTTI Base Class Descriptor at (0,-1,0,64)'
	DD	00H
	DD	00H
	DD	0ffffffffH
	DD	00H
	DD	040H
	DD	FLAT:??_R3error_category@std@@8
rdata$r	ENDS
;	COMDAT ??_R2error_category@std@@8
rdata$r	SEGMENT
??_R2error_category@std@@8 DD FLAT:??_R1A@?0A@EA@error_category@std@@8 ; std::error_category::`RTTI Base Class Array'
rdata$r	ENDS
;	COMDAT ??_R3error_category@std@@8
rdata$r	SEGMENT
??_R3error_category@std@@8 DD 00H			; std::error_category::`RTTI Class Hierarchy Descriptor'
	DD	00H
	DD	01H
	DD	FLAT:??_R2error_category@std@@8
rdata$r	ENDS
;	COMDAT ??_R0?AVerror_category@std@@@8
data$r	SEGMENT
??_R0?AVerror_category@std@@@8 DD FLAT:??_7type_info@@6B@ ; std::error_category `RTTI Type Descriptor'
	DD	00H
	DB	'.?AVerror_category@std@@', 00H
data$r	ENDS
;	COMDAT ??_R1A@?0A@EA@runtime_error@std@@8
rdata$r	SEGMENT
??_R1A@?0A@EA@runtime_error@std@@8 DD FLAT:??_R0?AVruntime_error@std@@@8 ; std::runtime_error::`RTTI Base Class Descriptor at (0,-1,0,64)'
	DD	01H
	DD	00H
	DD	0ffffffffH
	DD	00H
	DD	040H
	DD	FLAT:??_R3runtime_error@std@@8
rdata$r	ENDS
;	COMDAT ??_R2runtime_error@std@@8
rdata$r	SEGMENT
??_R2runtime_error@std@@8 DD FLAT:??_R1A@?0A@EA@runtime_error@std@@8 ; std::runtime_error::`RTTI Base Class Array'
	DD	FLAT:??_R1A@?0A@EA@exception@std@@8
rdata$r	ENDS
;	COMDAT ??_R3runtime_error@std@@8
rdata$r	SEGMENT
??_R3runtime_error@std@@8 DD 00H			; std::runtime_error::`RTTI Class Hierarchy Descriptor'
	DD	00H
	DD	02H
	DD	FLAT:??_R2runtime_error@std@@8
rdata$r	ENDS
;	COMDAT ??_R4runtime_error@std@@6B@
rdata$r	SEGMENT
??_R4runtime_error@std@@6B@ DD 00H			; std::runtime_error::`RTTI Complete Object Locator'
	DD	00H
	DD	00H
	DD	FLAT:??_R0?AVruntime_error@std@@@8
	DD	FLAT:??_R3runtime_error@std@@8
rdata$r	ENDS
;	COMDAT ??_R1A@?0A@EA@bad_array_new_length@std@@8
rdata$r	SEGMENT
??_R1A@?0A@EA@bad_array_new_length@std@@8 DD FLAT:??_R0?AVbad_array_new_length@std@@@8 ; std::bad_array_new_length::`RTTI Base Class Descriptor at (0,-1,0,64)'
	DD	02H
	DD	00H
	DD	0ffffffffH
	DD	00H
	DD	040H
	DD	FLAT:??_R3bad_array_new_length@std@@8
rdata$r	ENDS
;	COMDAT ??_R2bad_array_new_length@std@@8
rdata$r	SEGMENT
??_R2bad_array_new_length@std@@8 DD FLAT:??_R1A@?0A@EA@bad_array_new_length@std@@8 ; std::bad_array_new_length::`RTTI Base Class Array'
	DD	FLAT:??_R1A@?0A@EA@bad_alloc@std@@8
	DD	FLAT:??_R1A@?0A@EA@exception@std@@8
rdata$r	ENDS
;	COMDAT ??_R3bad_array_new_length@std@@8
rdata$r	SEGMENT
??_R3bad_array_new_length@std@@8 DD 00H			; std::bad_array_new_length::`RTTI Class Hierarchy Descriptor'
	DD	00H
	DD	03H
	DD	FLAT:??_R2bad_array_new_length@std@@8
rdata$r	ENDS
;	COMDAT ??_R4bad_array_new_length@std@@6B@
rdata$r	SEGMENT
??_R4bad_array_new_length@std@@6B@ DD 00H		; std::bad_array_new_length::`RTTI Complete Object Locator'
	DD	00H
	DD	00H
	DD	FLAT:??_R0?AVbad_array_new_length@std@@@8
	DD	FLAT:??_R3bad_array_new_length@std@@8
rdata$r	ENDS
;	COMDAT ??_R1A@?0A@EA@bad_alloc@std@@8
rdata$r	SEGMENT
??_R1A@?0A@EA@bad_alloc@std@@8 DD FLAT:??_R0?AVbad_alloc@std@@@8 ; std::bad_alloc::`RTTI Base Class Descriptor at (0,-1,0,64)'
	DD	01H
	DD	00H
	DD	0ffffffffH
	DD	00H
	DD	040H
	DD	FLAT:??_R3bad_alloc@std@@8
rdata$r	ENDS
;	COMDAT ??_R2bad_alloc@std@@8
rdata$r	SEGMENT
??_R2bad_alloc@std@@8 DD FLAT:??_R1A@?0A@EA@bad_alloc@std@@8 ; std::bad_alloc::`RTTI Base Class Array'
	DD	FLAT:??_R1A@?0A@EA@exception@std@@8
rdata$r	ENDS
;	COMDAT ??_R3bad_alloc@std@@8
rdata$r	SEGMENT
??_R3bad_alloc@std@@8 DD 00H				; std::bad_alloc::`RTTI Class Hierarchy Descriptor'
	DD	00H
	DD	02H
	DD	FLAT:??_R2bad_alloc@std@@8
rdata$r	ENDS
;	COMDAT ??_R4bad_alloc@std@@6B@
rdata$r	SEGMENT
??_R4bad_alloc@std@@6B@ DD 00H				; std::bad_alloc::`RTTI Complete Object Locator'
	DD	00H
	DD	00H
	DD	FLAT:??_R0?AVbad_alloc@std@@@8
	DD	FLAT:??_R3bad_alloc@std@@8
rdata$r	ENDS
;	COMDAT ??_R1A@?0A@EA@exception@std@@8
rdata$r	SEGMENT
??_R1A@?0A@EA@exception@std@@8 DD FLAT:??_R0?AVexception@std@@@8 ; std::exception::`RTTI Base Class Descriptor at (0,-1,0,64)'
	DD	00H
	DD	00H
	DD	0ffffffffH
	DD	00H
	DD	040H
	DD	FLAT:??_R3exception@std@@8
rdata$r	ENDS
;	COMDAT ??_R2exception@std@@8
rdata$r	SEGMENT
??_R2exception@std@@8 DD FLAT:??_R1A@?0A@EA@exception@std@@8 ; std::exception::`RTTI Base Class Array'
rdata$r	ENDS
;	COMDAT ??_R3exception@std@@8
rdata$r	SEGMENT
??_R3exception@std@@8 DD 00H				; std::exception::`RTTI Class Hierarchy Descriptor'
	DD	00H
	DD	01H
	DD	FLAT:??_R2exception@std@@8
rdata$r	ENDS
;	COMDAT ??_R4exception@std@@6B@
rdata$r	SEGMENT
??_R4exception@std@@6B@ DD 00H				; std::exception::`RTTI Complete Object Locator'
	DD	00H
	DD	00H
	DD	FLAT:??_R0?AVexception@std@@@8
	DD	FLAT:??_R3exception@std@@8
rdata$r	ENDS
;	COMDAT ??_C@_0BA@JFNIOLAK@string?5too?5long@
CONST	SEGMENT
??_C@_0BA@JFNIOLAK@string?5too?5long@ DB 'string too long', 00H ; `string'
CONST	ENDS
;	COMDAT __CT??_R0?AVfailure@ios_base@std@@@8??0failure@ios_base@std@@QAE@ABV012@@Z20
xdata$x	SEGMENT
__CT??_R0?AVfailure@ios_base@std@@@8??0failure@ios_base@std@@QAE@ABV012@@Z20 DD 00H
	DD	FLAT:??_R0?AVfailure@ios_base@std@@@8
	DD	00H
	DD	0ffffffffH
	ORG $+4
	DD	014H
	DD	FLAT:??0failure@ios_base@std@@QAE@ABV012@@Z
xdata$x	ENDS
;	COMDAT ??_R0?AVfailure@ios_base@std@@@8
data$r	SEGMENT
??_R0?AVfailure@ios_base@std@@@8 DD FLAT:??_7type_info@@6B@ ; std::ios_base::failure `RTTI Type Descriptor'
	DD	00H
	DB	'.?AVfailure@ios_base@std@@', 00H
data$r	ENDS
;	COMDAT __CTA5?AVfailure@ios_base@std@@
xdata$x	SEGMENT
__CTA5?AVfailure@ios_base@std@@ DD 05H
	DD	FLAT:__CT??_R0?AVfailure@ios_base@std@@@8??0failure@ios_base@std@@QAE@ABV012@@Z20
	DD	FLAT:__CT??_R0?AVsystem_error@std@@@8??0system_error@std@@QAE@ABV01@@Z20
	DD	FLAT:__CT??_R0?AV_System_error@std@@@8??0_System_error@std@@QAE@ABV01@@Z20
	DD	FLAT:__CT??_R0?AVruntime_error@std@@@8??0runtime_error@std@@QAE@ABV01@@Z12
	DD	FLAT:__CT??_R0?AVexception@std@@@8??0exception@std@@QAE@ABV01@@Z12
xdata$x	ENDS
;	COMDAT __TI5?AVfailure@ios_base@std@@
xdata$x	SEGMENT
__TI5?AVfailure@ios_base@std@@ DD 00H
	DD	FLAT:??1failure@ios_base@std@@UAE@XZ
	DD	00H
	DD	FLAT:__CTA5?AVfailure@ios_base@std@@
xdata$x	ENDS
;	COMDAT ??_C@_0BF@OOHOMBOF@ios_base?3?3eofbit?5set@
CONST	SEGMENT
??_C@_0BF@OOHOMBOF@ios_base?3?3eofbit?5set@ DB 'ios_base::eofbit set', 00H ; `string'
CONST	ENDS
;	COMDAT ??_C@_0BG@FMKFHCIL@ios_base?3?3failbit?5set@
CONST	SEGMENT
??_C@_0BG@FMKFHCIL@ios_base?3?3failbit?5set@ DB 'ios_base::failbit set', 00H ; `string'
CONST	ENDS
;	COMDAT ??_C@_0BF@PHHKMMFD@ios_base?3?3badbit?5set@
CONST	SEGMENT
??_C@_0BF@PHHKMMFD@ios_base?3?3badbit?5set@ DB 'ios_base::badbit set', 00H ; `string'
CONST	ENDS
;	COMDAT ??_7failure@ios_base@std@@6B@
CONST	SEGMENT
??_7failure@ios_base@std@@6B@ DD FLAT:??_R4failure@ios_base@std@@6B@ ; std::ios_base::failure::`vftable'
	DD	FLAT:??_Efailure@ios_base@std@@UAEPAXI@Z
	DD	FLAT:?what@exception@std@@UBEPBDXZ
CONST	ENDS
;	COMDAT ??_C@_0BG@PADBLCHM@iostream?5stream?5error@
CONST	SEGMENT
??_C@_0BG@PADBLCHM@iostream?5stream?5error@ DB 'iostream stream error', 00H ; `string'
CONST	ENDS
;	COMDAT ??_C@_08LLGCOLLL@iostream@
CONST	SEGMENT
??_C@_08LLGCOLLL@iostream@ DB 'iostream', 00H		; `string'
CONST	ENDS
;	COMDAT ??_7_Iostream_error_category@std@@6B@
CONST	SEGMENT
??_7_Iostream_error_category@std@@6B@ DD FLAT:??_R4_Iostream_error_category@std@@6B@ ; std::_Iostream_error_category::`vftable'
	DD	FLAT:??_E_Iostream_error_category@std@@UAEPAXI@Z
	DD	FLAT:?name@_Iostream_error_category@std@@UBEPBDXZ
	DD	FLAT:?message@_Iostream_error_category@std@@UBE?AV?$basic_string@DU?$char_traits@D@std@@V?$allocator@D@2@@2@H@Z
	DD	FLAT:?default_error_condition@error_category@std@@UBE?AVerror_condition@2@H@Z
	DD	FLAT:?equivalent@error_category@std@@UBE_NABVerror_code@2@H@Z
	DD	FLAT:?equivalent@error_category@std@@UBE_NHABVerror_condition@2@@Z
CONST	ENDS
;	COMDAT ??_C@_07DCLBNMLN@generic@
CONST	SEGMENT
??_C@_07DCLBNMLN@generic@ DB 'generic', 00H		; `string'
CONST	ENDS
;	COMDAT ??_7_Generic_error_category@std@@6B@
CONST	SEGMENT
??_7_Generic_error_category@std@@6B@ DD FLAT:??_R4_Generic_error_category@std@@6B@ ; std::_Generic_error_category::`vftable'
	DD	FLAT:??_E_Generic_error_category@std@@UAEPAXI@Z
	DD	FLAT:?name@_Generic_error_category@std@@UBEPBDXZ
	DD	FLAT:?message@_Generic_error_category@std@@UBE?AV?$basic_string@DU?$char_traits@D@std@@V?$allocator@D@2@@2@H@Z
	DD	FLAT:?default_error_condition@error_category@std@@UBE?AVerror_condition@2@H@Z
	DD	FLAT:?equivalent@error_category@std@@UBE_NABVerror_code@2@H@Z
	DD	FLAT:?equivalent@error_category@std@@UBE_NHABVerror_condition@2@@Z
CONST	ENDS
;	COMDAT __CT??_R0?AV_System_error@std@@@8??0_System_error@std@@QAE@ABV01@@Z20
xdata$x	SEGMENT
__CT??_R0?AV_System_error@std@@@8??0_System_error@std@@QAE@ABV01@@Z20 DD 00H
	DD	FLAT:??_R0?AV_System_error@std@@@8
	DD	00H
	DD	0ffffffffH
	ORG $+4
	DD	014H
	DD	FLAT:??0_System_error@std@@QAE@ABV01@@Z
xdata$x	ENDS
;	COMDAT ??_R0?AV_System_error@std@@@8
data$r	SEGMENT
??_R0?AV_System_error@std@@@8 DD FLAT:??_7type_info@@6B@ ; std::_System_error `RTTI Type Descriptor'
	DD	00H
	DB	'.?AV_System_error@std@@', 00H
data$r	ENDS
;	COMDAT __CT??_R0?AVsystem_error@std@@@8??0system_error@std@@QAE@ABV01@@Z20
xdata$x	SEGMENT
__CT??_R0?AVsystem_error@std@@@8??0system_error@std@@QAE@ABV01@@Z20 DD 00H
	DD	FLAT:??_R0?AVsystem_error@std@@@8
	DD	00H
	DD	0ffffffffH
	ORG $+4
	DD	014H
	DD	FLAT:??0system_error@std@@QAE@ABV01@@Z
xdata$x	ENDS
;	COMDAT ??_R0?AVsystem_error@std@@@8
data$r	SEGMENT
??_R0?AVsystem_error@std@@@8 DD FLAT:??_7type_info@@6B@	; std::system_error `RTTI Type Descriptor'
	DD	00H
	DB	'.?AVsystem_error@std@@', 00H
data$r	ENDS
;	COMDAT ??_7system_error@std@@6B@
CONST	SEGMENT
??_7system_error@std@@6B@ DD FLAT:??_R4system_error@std@@6B@ ; std::system_error::`vftable'
	DD	FLAT:??_Esystem_error@std@@UAEPAXI@Z
	DD	FLAT:?what@exception@std@@UBEPBDXZ
CONST	ENDS
;	COMDAT ??_C@_02LMMGGCAJ@?3?5@
CONST	SEGMENT
??_C@_02LMMGGCAJ@?3?5@ DB ': ', 00H			; `string'
CONST	ENDS
;	COMDAT ??_7_System_error@std@@6B@
CONST	SEGMENT
??_7_System_error@std@@6B@ DD FLAT:??_R4_System_error@std@@6B@ ; std::_System_error::`vftable'
	DD	FLAT:??_E_System_error@std@@UAEPAXI@Z
	DD	FLAT:?what@exception@std@@UBEPBDXZ
CONST	ENDS
;	COMDAT __CT??_R0?AVruntime_error@std@@@8??0runtime_error@std@@QAE@ABV01@@Z12
xdata$x	SEGMENT
__CT??_R0?AVruntime_error@std@@@8??0runtime_error@std@@QAE@ABV01@@Z12 DD 00H
	DD	FLAT:??_R0?AVruntime_error@std@@@8
	DD	00H
	DD	0ffffffffH
	ORG $+4
	DD	0cH
	DD	FLAT:??0runtime_error@std@@QAE@ABV01@@Z
xdata$x	ENDS
;	COMDAT ??_R0?AVruntime_error@std@@@8
data$r	SEGMENT
??_R0?AVruntime_error@std@@@8 DD FLAT:??_7type_info@@6B@ ; std::runtime_error `RTTI Type Descriptor'
	DD	00H
	DB	'.?AVruntime_error@std@@', 00H
data$r	ENDS
;	COMDAT ??_7runtime_error@std@@6B@
CONST	SEGMENT
??_7runtime_error@std@@6B@ DD FLAT:??_R4runtime_error@std@@6B@ ; std::runtime_error::`vftable'
	DD	FLAT:??_Eruntime_error@std@@UAEPAXI@Z
	DD	FLAT:?what@exception@std@@UBEPBDXZ
CONST	ENDS
;	COMDAT __CT??_R0?AVexception@std@@@8??0exception@std@@QAE@ABV01@@Z12
xdata$x	SEGMENT
__CT??_R0?AVexception@std@@@8??0exception@std@@QAE@ABV01@@Z12 DD 00H
	DD	FLAT:??_R0?AVexception@std@@@8
	DD	00H
	DD	0ffffffffH
	ORG $+4
	DD	0cH
	DD	FLAT:??0exception@std@@QAE@ABV01@@Z
xdata$x	ENDS
;	COMDAT ??_R0?AVexception@std@@@8
data$r	SEGMENT
??_R0?AVexception@std@@@8 DD FLAT:??_7type_info@@6B@	; std::exception `RTTI Type Descriptor'
	DD	00H
	DB	'.?AVexception@std@@', 00H
data$r	ENDS
;	COMDAT __CT??_R0?AVbad_alloc@std@@@8??0bad_alloc@std@@QAE@ABV01@@Z12
xdata$x	SEGMENT
__CT??_R0?AVbad_alloc@std@@@8??0bad_alloc@std@@QAE@ABV01@@Z12 DD 010H
	DD	FLAT:??_R0?AVbad_alloc@std@@@8
	DD	00H
	DD	0ffffffffH
	ORG $+4
	DD	0cH
	DD	FLAT:??0bad_alloc@std@@QAE@ABV01@@Z
xdata$x	ENDS
;	COMDAT ??_R0?AVbad_alloc@std@@@8
data$r	SEGMENT
??_R0?AVbad_alloc@std@@@8 DD FLAT:??_7type_info@@6B@	; std::bad_alloc `RTTI Type Descriptor'
	DD	00H
	DB	'.?AVbad_alloc@std@@', 00H
data$r	ENDS
;	COMDAT __CT??_R0?AVbad_array_new_length@std@@@8??0bad_array_new_length@std@@QAE@ABV01@@Z12
xdata$x	SEGMENT
__CT??_R0?AVbad_array_new_length@std@@@8??0bad_array_new_length@std@@QAE@ABV01@@Z12 DD 00H
	DD	FLAT:??_R0?AVbad_array_new_length@std@@@8
	DD	00H
	DD	0ffffffffH
	ORG $+4
	DD	0cH
	DD	FLAT:??0bad_array_new_length@std@@QAE@ABV01@@Z
xdata$x	ENDS
;	COMDAT ??_R0?AVbad_array_new_length@std@@@8
data$r	SEGMENT
??_R0?AVbad_array_new_length@std@@@8 DD FLAT:??_7type_info@@6B@ ; std::bad_array_new_length `RTTI Type Descriptor'
	DD	00H
	DB	'.?AVbad_array_new_length@std@@', 00H
data$r	ENDS
;	COMDAT __CTA3?AVbad_array_new_length@std@@
xdata$x	SEGMENT
__CTA3?AVbad_array_new_length@std@@ DD 03H
	DD	FLAT:__CT??_R0?AVbad_array_new_length@std@@@8??0bad_array_new_length@std@@QAE@ABV01@@Z12
	DD	FLAT:__CT??_R0?AVbad_alloc@std@@@8??0bad_alloc@std@@QAE@ABV01@@Z12
	DD	FLAT:__CT??_R0?AVexception@std@@@8??0exception@std@@QAE@ABV01@@Z12
xdata$x	ENDS
;	COMDAT __TI3?AVbad_array_new_length@std@@
xdata$x	SEGMENT
__TI3?AVbad_array_new_length@std@@ DD 00H
	DD	FLAT:??1bad_array_new_length@std@@UAE@XZ
	DD	00H
	DD	FLAT:__CTA3?AVbad_array_new_length@std@@
xdata$x	ENDS
;	COMDAT ??_C@_0BF@KINCDENJ@bad?5array?5new?5length@
CONST	SEGMENT
??_C@_0BF@KINCDENJ@bad?5array?5new?5length@ DB 'bad array new length', 00H ; `string'
CONST	ENDS
;	COMDAT ??_7bad_array_new_length@std@@6B@
CONST	SEGMENT
??_7bad_array_new_length@std@@6B@ DD FLAT:??_R4bad_array_new_length@std@@6B@ ; std::bad_array_new_length::`vftable'
	DD	FLAT:??_Ebad_array_new_length@std@@UAEPAXI@Z
	DD	FLAT:?what@exception@std@@UBEPBDXZ
CONST	ENDS
;	COMDAT ??_7bad_alloc@std@@6B@
CONST	SEGMENT
??_7bad_alloc@std@@6B@ DD FLAT:??_R4bad_alloc@std@@6B@	; std::bad_alloc::`vftable'
	DD	FLAT:??_Ebad_alloc@std@@UAEPAXI@Z
	DD	FLAT:?what@exception@std@@UBEPBDXZ
CONST	ENDS
;	COMDAT ??_C@_0BC@EOODALEL@Unknown?5exception@
CONST	SEGMENT
??_C@_0BC@EOODALEL@Unknown?5exception@ DB 'Unknown exception', 00H ; `string'
CONST	ENDS
;	COMDAT ??_7exception@std@@6B@
CONST	SEGMENT
??_7exception@std@@6B@ DD FLAT:??_R4exception@std@@6B@	; std::exception::`vftable'
	DD	FLAT:??_Eexception@std@@UAEPAXI@Z
	DD	FLAT:?what@exception@std@@UBEPBDXZ
CONST	ENDS
;	COMDAT xdata$x
xdata$x	SEGMENT
__catchsym$??$?6U?$char_traits@D@std@@@std@@YAAAV?$basic_ostream@DU?$char_traits@D@std@@@0@AAV10@PBD@Z$2 DD 00H
	DD	00H
	DD	00H
	DD	FLAT:__catch$??$?6U?$char_traits@D@std@@@std@@YAAAV?$basic_ostream@DU?$char_traits@D@std@@@0@AAV10@PBD@Z$0
__unwindtable$??$?6U?$char_traits@D@std@@@std@@YAAAV?$basic_ostream@DU?$char_traits@D@std@@@0@AAV10@PBD@Z DD 0ffffffffH
	DD	00H
	DD	0ffffffffH
	DD	00H
__tryblocktable$??$?6U?$char_traits@D@std@@@std@@YAAAV?$basic_ostream@DU?$char_traits@D@std@@@0@AAV10@PBD@Z DD 00H
	DD	00H
	DD	01H
	DD	01H
	DD	FLAT:__catchsym$??$?6U?$char_traits@D@std@@@std@@YAAAV?$basic_ostream@DU?$char_traits@D@std@@@0@AAV10@PBD@Z$2
__ehfuncinfo$??$?6U?$char_traits@D@std@@@std@@YAAAV?$basic_ostream@DU?$char_traits@D@std@@@0@AAV10@PBD@Z DD 019930522H
	DD	02H
	DD	FLAT:__unwindtable$??$?6U?$char_traits@D@std@@@std@@YAAAV?$basic_ostream@DU?$char_traits@D@std@@@0@AAV10@PBD@Z
	DD	01H
	DD	FLAT:__tryblocktable$??$?6U?$char_traits@D@std@@@std@@YAAAV?$basic_ostream@DU?$char_traits@D@std@@@0@AAV10@PBD@Z
	DD	2 DUP(00H)
	DD	00H
	DD	00H
xdata$x	ENDS
;	COMDAT xdata$x
xdata$x	SEGMENT
__catchsym$?_Osfx@?$basic_ostream@DU?$char_traits@D@std@@@std@@QAEXXZ$2 DD 00H
	DD	00H
	DD	00H
	DD	FLAT:__catch$?_Osfx@?$basic_ostream@DU?$char_traits@D@std@@@std@@QAEXXZ$0
__unwindtable$?_Osfx@?$basic_ostream@DU?$char_traits@D@std@@@std@@QAEXXZ DD 0ffffffffH
	DD	00H
	DD	0ffffffffH
	DD	00H
__tryblocktable$?_Osfx@?$basic_ostream@DU?$char_traits@D@std@@@std@@QAEXXZ DD 00H
	DD	00H
	DD	01H
	DD	01H
	DD	FLAT:__catchsym$?_Osfx@?$basic_ostream@DU?$char_traits@D@std@@@std@@QAEXXZ$2
__ehfuncinfo$?_Osfx@?$basic_ostream@DU?$char_traits@D@std@@@std@@QAEXXZ DD 019930522H
	DD	02H
	DD	FLAT:__unwindtable$?_Osfx@?$basic_ostream@DU?$char_traits@D@std@@@std@@QAEXXZ
	DD	01H
	DD	FLAT:__tryblocktable$?_Osfx@?$basic_ostream@DU?$char_traits@D@std@@@std@@QAEXXZ
	DD	2 DUP(00H)
	DD	00H
	DD	00H
xdata$x	ENDS
; Function compile flags: /Odtp
;	COMDAT ??$_Allocate_manually_vector_aligned@U_Default_allocate_traits@std@@@std@@YAPAXI@Z
_TEXT	SEGMENT
__Ptr$ = -12						; size = 4
__Block_size$ = -8					; size = 4
__Ptr_container$ = -4					; size = 4
__Bytes$ = 8						; size = 4
??$_Allocate_manually_vector_aligned@U_Default_allocate_traits@std@@@std@@YAPAXI@Z PROC ; std::_Allocate_manually_vector_aligned<std::_Default_allocate_traits>, COMDAT
; File C:\Program Files (x86)\Microsoft Visual Studio\2019\Preview\VC\Tools\MSVC\14.23.28008\include\xmemory
; Line 83
	push	ebp
	mov	ebp, esp
	sub	esp, 12					; 0000000cH
; Line 85
	mov	eax, DWORD PTR __Bytes$[ebp]
	add	eax, 35					; 00000023H
	mov	DWORD PTR __Block_size$[ebp], eax
; Line 86
	mov	ecx, DWORD PTR __Block_size$[ebp]
	cmp	ecx, DWORD PTR __Bytes$[ebp]
	ja	SHORT $LN8@Allocate_m
; Line 87
	call	?_Throw_bad_array_new_length@std@@YAXXZ	; std::_Throw_bad_array_new_length
$LN8@Allocate_m:
; Line 90
	mov	edx, DWORD PTR __Block_size$[ebp]
	push	edx
	call	?_Allocate@_Default_allocate_traits@std@@SAPAXI@Z ; std::_Default_allocate_traits::_Allocate
	add	esp, 4
	mov	DWORD PTR __Ptr_container$[ebp], eax
$LN4@Allocate_m:
; Line 91
	cmp	DWORD PTR __Ptr_container$[ebp], 0
	je	SHORT $LN7@Allocate_m
	jmp	SHORT $LN2@Allocate_m
$LN7@Allocate_m:
	call	__invalid_parameter_noinfo_noreturn
	xor	eax, eax
	jne	SHORT $LN7@Allocate_m
$LN2@Allocate_m:
	xor	ecx, ecx
	jne	SHORT $LN4@Allocate_m
; Line 92
	mov	edx, DWORD PTR __Ptr_container$[ebp]
	add	edx, 35					; 00000023H
	and	edx, -32				; ffffffe0H
	mov	DWORD PTR __Ptr$[ebp], edx
; Line 93
	mov	eax, 4
	imul	ecx, eax, -1
	mov	edx, DWORD PTR __Ptr$[ebp]
	mov	eax, DWORD PTR __Ptr_container$[ebp]
	mov	DWORD PTR [edx+ecx], eax
; Line 98
	mov	eax, DWORD PTR __Ptr$[ebp]
$LN11@Allocate_m:
; Line 99
	mov	esp, ebp
	pop	ebp
	ret	0
??$_Allocate_manually_vector_aligned@U_Default_allocate_traits@std@@@std@@YAPAXI@Z ENDP ; std::_Allocate_manually_vector_aligned<std::_Default_allocate_traits>
_TEXT	ENDS
; Function compile flags: /Odtp
;	COMDAT ??$forward@ABQAD@std@@YAABQADABQAD@Z
_TEXT	SEGMENT
__Arg$ = 8						; size = 4
??$forward@ABQAD@std@@YAABQADABQAD@Z PROC		; std::forward<char * const &>, COMDAT
; File C:\Program Files (x86)\Microsoft Visual Studio\2019\Preview\VC\Tools\MSVC\14.23.28008\include\type_traits
; Line 1420
	push	ebp
	mov	ebp, esp
; Line 1421
	mov	eax, DWORD PTR __Arg$[ebp]
; Line 1422
	pop	ebp
	ret	0
??$forward@ABQAD@std@@YAABQADABQAD@Z ENDP		; std::forward<char * const &>
_TEXT	ENDS
; Function compile flags: /Odtp
;	COMDAT ??$addressof@PAD@std@@YAPAPADAAPAD@Z
_TEXT	SEGMENT
__Val$ = 8						; size = 4
??$addressof@PAD@std@@YAPAPADAAPAD@Z PROC		; std::addressof<char *>, COMDAT
; File C:\Program Files (x86)\Microsoft Visual Studio\2019\Preview\VC\Tools\MSVC\14.23.28008\include\xstddef
; Line 279
	push	ebp
	mov	ebp, esp
; Line 280
	mov	eax, DWORD PTR __Val$[ebp]
; Line 281
	pop	ebp
	ret	0
??$addressof@PAD@std@@YAPAPADAAPAD@Z ENDP		; std::addressof<char *>
_TEXT	ENDS
; Function compile flags: /Odtp
;	COMDAT ??$forward@V?$allocator@D@std@@@std@@YA$$QAV?$allocator@D@0@AAV10@@Z
_TEXT	SEGMENT
__Arg$ = 8						; size = 4
??$forward@V?$allocator@D@std@@@std@@YA$$QAV?$allocator@D@0@AAV10@@Z PROC ; std::forward<std::allocator<char> >, COMDAT
; File C:\Program Files (x86)\Microsoft Visual Studio\2019\Preview\VC\Tools\MSVC\14.23.28008\include\type_traits
; Line 1420
	push	ebp
	mov	ebp, esp
; Line 1421
	mov	eax, DWORD PTR __Arg$[ebp]
; Line 1422
	pop	ebp
	ret	0
??$forward@V?$allocator@D@std@@@std@@YA$$QAV?$allocator@D@0@AAV10@@Z ENDP ; std::forward<std::allocator<char> >
_TEXT	ENDS
; Function compile flags: /Odtp
;	COMDAT ?_Pnavail@?$basic_streambuf@DU?$char_traits@D@std@@@std@@IBE_JXZ
_TEXT	SEGMENT
tv69 = -8						; size = 4
_this$ = -4						; size = 4
?_Pnavail@?$basic_streambuf@DU?$char_traits@D@std@@@std@@IBE_JXZ PROC ; std::basic_streambuf<char,std::char_traits<char> >::_Pnavail, COMDAT
; _this$ = ecx
; File C:\Program Files (x86)\Microsoft Visual Studio\2019\Preview\VC\Tools\MSVC\14.23.28008\include\streambuf
; Line 257
	push	ebp
	mov	ebp, esp
	sub	esp, 8
	mov	DWORD PTR _this$[ebp], ecx
; Line 258
	mov	eax, DWORD PTR _this$[ebp]
	mov	ecx, DWORD PTR [eax+32]
	cmp	DWORD PTR [ecx], 0
	je	SHORT $LN3@Pnavail
	mov	edx, DWORD PTR _this$[ebp]
	mov	eax, DWORD PTR [edx+48]
	mov	ecx, DWORD PTR [eax]
	mov	DWORD PTR tv69[ebp], ecx
	jmp	SHORT $LN4@Pnavail
$LN3@Pnavail:
	mov	DWORD PTR tv69[ebp], 0
$LN4@Pnavail:
	mov	eax, DWORD PTR tv69[ebp]
	cdq
; Line 259
	mov	esp, ebp
	pop	ebp
	ret	0
?_Pnavail@?$basic_streambuf@DU?$char_traits@D@std@@@std@@IBE_JXZ ENDP ; std::basic_streambuf<char,std::char_traits<char> >::_Pnavail
_TEXT	ENDS
; Function compile flags: /Odtp
;	COMDAT ?_Pninc@?$basic_streambuf@DU?$char_traits@D@std@@@std@@IAEPADXZ
_TEXT	SEGMENT
tv76 = -8						; size = 4
_this$ = -4						; size = 4
?_Pninc@?$basic_streambuf@DU?$char_traits@D@std@@@std@@IAEPADXZ PROC ; std::basic_streambuf<char,std::char_traits<char> >::_Pninc, COMDAT
; _this$ = ecx
; File C:\Program Files (x86)\Microsoft Visual Studio\2019\Preview\VC\Tools\MSVC\14.23.28008\include\streambuf
; Line 252
	push	ebp
	mov	ebp, esp
	sub	esp, 8
	mov	DWORD PTR _this$[ebp], ecx
; Line 253
	mov	eax, DWORD PTR _this$[ebp]
	mov	ecx, DWORD PTR [eax+48]
	mov	edx, DWORD PTR [ecx]
	sub	edx, 1
	mov	eax, DWORD PTR _this$[ebp]
	mov	ecx, DWORD PTR [eax+48]
	mov	DWORD PTR [ecx], edx
; Line 254
	mov	edx, DWORD PTR _this$[ebp]
	mov	eax, DWORD PTR [edx+32]
	mov	ecx, DWORD PTR [eax]
	mov	DWORD PTR tv76[ebp], ecx
	mov	edx, DWORD PTR _this$[ebp]
	mov	eax, DWORD PTR [edx+32]
	mov	ecx, DWORD PTR [eax]
	add	ecx, 1
	mov	edx, DWORD PTR _this$[ebp]
	mov	eax, DWORD PTR [edx+32]
	mov	DWORD PTR [eax], ecx
	mov	eax, DWORD PTR tv76[ebp]
; Line 255
	mov	esp, ebp
	pop	ebp
	ret	0
?_Pninc@?$basic_streambuf@DU?$char_traits@D@std@@@std@@IAEPADXZ ENDP ; std::basic_streambuf<char,std::char_traits<char> >::_Pninc
_TEXT	ENDS
; Function compile flags: /Odtp
;	COMDAT ?sputn@?$basic_streambuf@DU?$char_traits@D@std@@@std@@QAE_JPBD_J@Z
_TEXT	SEGMENT
_this$ = -4						; size = 4
__Ptr$ = 8						; size = 4
__Count$ = 12						; size = 8
?sputn@?$basic_streambuf@DU?$char_traits@D@std@@@std@@QAE_JPBD_J@Z PROC ; std::basic_streambuf<char,std::char_traits<char> >::sputn, COMDAT
; _this$ = ecx
; File C:\Program Files (x86)\Microsoft Visual Studio\2019\Preview\VC\Tools\MSVC\14.23.28008\include\streambuf
; Line 169
	push	ebp
	mov	ebp, esp
	push	ecx
	mov	DWORD PTR _this$[ebp], ecx
; Line 170
	mov	eax, DWORD PTR __Count$[ebp+4]
	push	eax
	mov	ecx, DWORD PTR __Count$[ebp]
	push	ecx
	mov	edx, DWORD PTR __Ptr$[ebp]
	push	edx
	mov	eax, DWORD PTR _this$[ebp]
	mov	edx, DWORD PTR [eax]
	mov	ecx, DWORD PTR _this$[ebp]
	mov	eax, DWORD PTR [edx+36]
	call	eax
; Line 171
	mov	esp, ebp
	pop	ebp
	ret	12					; 0000000cH
?sputn@?$basic_streambuf@DU?$char_traits@D@std@@@std@@QAE_JPBD_J@Z ENDP ; std::basic_streambuf<char,std::char_traits<char> >::sputn
_TEXT	ENDS
; Function compile flags: /Odtp
;	COMDAT ?sputc@?$basic_streambuf@DU?$char_traits@D@std@@@std@@QAEHD@Z
_TEXT	SEGMENT
tv85 = -20						; size = 8
tv78 = -12						; size = 4
$T1 = -8						; size = 4
_this$ = -4						; size = 4
__Ch$ = 8						; size = 1
?sputc@?$basic_streambuf@DU?$char_traits@D@std@@@std@@QAEHD@Z PROC ; std::basic_streambuf<char,std::char_traits<char> >::sputc, COMDAT
; _this$ = ecx
; File C:\Program Files (x86)\Microsoft Visual Studio\2019\Preview\VC\Tools\MSVC\14.23.28008\include\streambuf
; Line 164
	push	ebp
	mov	ebp, esp
	sub	esp, 20					; 00000014H
	mov	DWORD PTR _this$[ebp], ecx
; Line 165
	mov	ecx, DWORD PTR _this$[ebp]
	call	?_Pnavail@?$basic_streambuf@DU?$char_traits@D@std@@@std@@IBE_JXZ ; std::basic_streambuf<char,std::char_traits<char> >::_Pnavail
	mov	DWORD PTR tv85[ebp], eax
	mov	DWORD PTR tv85[ebp+4], edx
	cmp	DWORD PTR tv85[ebp+4], 0
	jl	SHORT $LN3@sputc
	jg	SHORT $LN5@sputc
	cmp	DWORD PTR tv85[ebp], 0
	jbe	SHORT $LN3@sputc
$LN5@sputc:
	mov	ecx, DWORD PTR _this$[ebp]
	call	?_Pninc@?$basic_streambuf@DU?$char_traits@D@std@@@std@@IAEPADXZ ; std::basic_streambuf<char,std::char_traits<char> >::_Pninc
	mov	DWORD PTR $T1[ebp], eax
	mov	eax, DWORD PTR $T1[ebp]
	mov	cl, BYTE PTR __Ch$[ebp]
	mov	BYTE PTR [eax], cl
	mov	edx, DWORD PTR $T1[ebp]
	push	edx
	call	?to_int_type@?$_Narrow_char_traits@DH@std@@SAHABD@Z ; std::_Narrow_char_traits<char,int>::to_int_type
	add	esp, 4
	mov	DWORD PTR tv78[ebp], eax
	jmp	SHORT $LN4@sputc
$LN3@sputc:
	lea	eax, DWORD PTR __Ch$[ebp]
	push	eax
	call	?to_int_type@?$_Narrow_char_traits@DH@std@@SAHABD@Z ; std::_Narrow_char_traits<char,int>::to_int_type
	add	esp, 4
	push	eax
	mov	ecx, DWORD PTR _this$[ebp]
	mov	edx, DWORD PTR [ecx]
	mov	ecx, DWORD PTR _this$[ebp]
	mov	eax, DWORD PTR [edx+12]
	call	eax
	mov	DWORD PTR tv78[ebp], eax
$LN4@sputc:
	mov	eax, DWORD PTR tv78[ebp]
; Line 166
	mov	esp, ebp
	pop	ebp
	ret	4
?sputc@?$basic_streambuf@DU?$char_traits@D@std@@@std@@QAEHD@Z ENDP ; std::basic_streambuf<char,std::char_traits<char> >::sputc
_TEXT	ENDS
; Function compile flags: /Odtp
;	COMDAT ?pubsync@?$basic_streambuf@DU?$char_traits@D@std@@@std@@QAEHXZ
_TEXT	SEGMENT
_this$ = -4						; size = 4
?pubsync@?$basic_streambuf@DU?$char_traits@D@std@@@std@@QAEHXZ PROC ; std::basic_streambuf<char,std::char_traits<char> >::pubsync, COMDAT
; _this$ = ecx
; File C:\Program Files (x86)\Microsoft Visual Studio\2019\Preview\VC\Tools\MSVC\14.23.28008\include\streambuf
; Line 120
	push	ebp
	mov	ebp, esp
	push	ecx
	mov	DWORD PTR _this$[ebp], ecx
; Line 121
	mov	eax, DWORD PTR _this$[ebp]
	mov	edx, DWORD PTR [eax]
	mov	ecx, DWORD PTR _this$[ebp]
	mov	eax, DWORD PTR [edx+52]
	call	eax
; Line 122
	mov	esp, ebp
	pop	ebp
	ret	0
?pubsync@?$basic_streambuf@DU?$char_traits@D@std@@@std@@QAEHXZ ENDP ; std::basic_streambuf<char,std::char_traits<char> >::pubsync
_TEXT	ENDS
; Function compile flags: /Odtp
;	COMDAT ??Bsentry@?$basic_ostream@DU?$char_traits@D@std@@@std@@QBE_NXZ
_TEXT	SEGMENT
_this$ = -4						; size = 4
??Bsentry@?$basic_ostream@DU?$char_traits@D@std@@@std@@QBE_NXZ PROC ; std::basic_ostream<char,std::char_traits<char> >::sentry::operator bool, COMDAT
; _this$ = ecx
; File C:\Program Files (x86)\Microsoft Visual Studio\2019\Preview\VC\Tools\MSVC\14.23.28008\include\ostream
; Line 130
	push	ebp
	mov	ebp, esp
	push	ecx
	mov	DWORD PTR _this$[ebp], ecx
; Line 131
	mov	eax, DWORD PTR _this$[ebp]
	mov	al, BYTE PTR [eax+4]
; Line 132
	mov	esp, ebp
	pop	ebp
	ret	0
??Bsentry@?$basic_ostream@DU?$char_traits@D@std@@@std@@QBE_NXZ ENDP ; std::basic_ostream<char,std::char_traits<char> >::sentry::operator bool
_TEXT	ENDS
; Function compile flags: /Odtp
;	COMDAT ??1sentry@?$basic_ostream@DU?$char_traits@D@std@@@std@@QAE@XZ
_TEXT	SEGMENT
_this$ = -4						; size = 4
??1sentry@?$basic_ostream@DU?$char_traits@D@std@@@std@@QAE@XZ PROC ; std::basic_ostream<char,std::char_traits<char> >::sentry::~sentry, COMDAT
; _this$ = ecx
; File C:\Program Files (x86)\Microsoft Visual Studio\2019\Preview\VC\Tools\MSVC\14.23.28008\include\ostream
; Line 115
	push	ebp
	mov	ebp, esp
	push	ecx
	mov	DWORD PTR _this$[ebp], ecx
; Line 117
	call	?uncaught_exception@std@@YA_NXZ		; std::uncaught_exception
	movzx	eax, al
	test	eax, eax
	jne	SHORT $LN1@sentry
; Line 118
	mov	ecx, DWORD PTR _this$[ebp]
	mov	ecx, DWORD PTR [ecx]
	call	?_Osfx@?$basic_ostream@DU?$char_traits@D@std@@@std@@QAEXXZ ; std::basic_ostream<char,std::char_traits<char> >::_Osfx
$LN1@sentry:
; Line 123
	mov	ecx, DWORD PTR _this$[ebp]
	call	??1_Sentry_base@?$basic_ostream@DU?$char_traits@D@std@@@std@@QAE@XZ ; std::basic_ostream<char,std::char_traits<char> >::_Sentry_base::~_Sentry_base
	mov	esp, ebp
	pop	ebp
	ret	0
??1sentry@?$basic_ostream@DU?$char_traits@D@std@@@std@@QAE@XZ ENDP ; std::basic_ostream<char,std::char_traits<char> >::sentry::~sentry
_TEXT	ENDS
; Function compile flags: /Odtp
;	COMDAT ??0sentry@?$basic_ostream@DU?$char_traits@D@std@@@std@@QAE@AAV12@@Z
_TEXT	SEGMENT
__Tied$ = -8						; size = 4
_this$ = -4						; size = 4
__Ostr$ = 8						; size = 4
??0sentry@?$basic_ostream@DU?$char_traits@D@std@@@std@@QAE@AAV12@@Z PROC ; std::basic_ostream<char,std::char_traits<char> >::sentry::sentry, COMDAT
; _this$ = ecx
; File C:\Program Files (x86)\Microsoft Visual Studio\2019\Preview\VC\Tools\MSVC\14.23.28008\include\ostream
; Line 90
	push	ebp
	mov	ebp, esp
	sub	esp, 8
	mov	DWORD PTR _this$[ebp], ecx
; Line 91
	mov	eax, DWORD PTR __Ostr$[ebp]
	push	eax
	mov	ecx, DWORD PTR _this$[ebp]
	call	??0_Sentry_base@?$basic_ostream@DU?$char_traits@D@std@@@std@@QAE@AAV12@@Z ; std::basic_ostream<char,std::char_traits<char> >::_Sentry_base::_Sentry_base
; Line 92
	mov	ecx, DWORD PTR __Ostr$[ebp]
	mov	edx, DWORD PTR [ecx]
	mov	ecx, DWORD PTR __Ostr$[ebp]
	add	ecx, DWORD PTR [edx+4]
	call	?good@ios_base@std@@QBE_NXZ		; std::ios_base::good
	movzx	eax, al
	test	eax, eax
	jne	SHORT $LN2@sentry
; Line 93
	mov	ecx, DWORD PTR _this$[ebp]
	mov	BYTE PTR [ecx+4], 0
; Line 94
	jmp	SHORT $LN1@sentry
$LN2@sentry:
; Line 97
	mov	edx, DWORD PTR __Ostr$[ebp]
	mov	eax, DWORD PTR [edx]
	mov	ecx, DWORD PTR __Ostr$[ebp]
	add	ecx, DWORD PTR [eax+4]
	call	?tie@?$basic_ios@DU?$char_traits@D@std@@@std@@QBEPAV?$basic_ostream@DU?$char_traits@D@std@@@2@XZ ; std::basic_ios<char,std::char_traits<char> >::tie
	mov	DWORD PTR __Tied$[ebp], eax
; Line 98
	cmp	DWORD PTR __Tied$[ebp], 0
	je	SHORT $LN4@sentry
	mov	ecx, DWORD PTR __Tied$[ebp]
	cmp	ecx, DWORD PTR __Ostr$[ebp]
	jne	SHORT $LN3@sentry
$LN4@sentry:
; Line 99
	mov	edx, DWORD PTR _this$[ebp]
	mov	BYTE PTR [edx+4], 1
; Line 100
	jmp	SHORT $LN1@sentry
$LN3@sentry:
; Line 104
	mov	ecx, DWORD PTR __Tied$[ebp]
	call	?flush@?$basic_ostream@DU?$char_traits@D@std@@@std@@QAEAAV12@XZ ; std::basic_ostream<char,std::char_traits<char> >::flush
; Line 105
	mov	eax, DWORD PTR __Ostr$[ebp]
	mov	ecx, DWORD PTR [eax]
	mov	edx, DWORD PTR __Ostr$[ebp]
	add	edx, DWORD PTR [ecx+4]
	mov	ecx, edx
	call	?good@ios_base@std@@QBE_NXZ		; std::ios_base::good
	mov	ecx, DWORD PTR _this$[ebp]
	mov	BYTE PTR [ecx+4], al
$LN1@sentry:
; Line 106
	mov	eax, DWORD PTR _this$[ebp]
	mov	esp, ebp
	pop	ebp
	ret	4
??0sentry@?$basic_ostream@DU?$char_traits@D@std@@@std@@QAE@AAV12@@Z ENDP ; std::basic_ostream<char,std::char_traits<char> >::sentry::sentry
_TEXT	ENDS
; Function compile flags: /Odtp
;	COMDAT ??1_Sentry_base@?$basic_ostream@DU?$char_traits@D@std@@@std@@QAE@XZ
_TEXT	SEGMENT
_this$ = -12						; size = 4
tv72 = -8						; size = 4
__Rdbuf$ = -4						; size = 4
??1_Sentry_base@?$basic_ostream@DU?$char_traits@D@std@@@std@@QAE@XZ PROC ; std::basic_ostream<char,std::char_traits<char> >::_Sentry_base::~_Sentry_base, COMDAT
; _this$ = ecx
; File C:\Program Files (x86)\Microsoft Visual Studio\2019\Preview\VC\Tools\MSVC\14.23.28008\include\ostream
; Line 76
	push	ebp
	mov	ebp, esp
	sub	esp, 12					; 0000000cH
	mov	DWORD PTR _this$[ebp], ecx
; Line 77
	mov	eax, DWORD PTR _this$[ebp]
	mov	ecx, DWORD PTR [eax]
	mov	DWORD PTR tv72[ebp], ecx
	mov	edx, DWORD PTR tv72[ebp]
	mov	eax, DWORD PTR [edx]
	mov	ecx, DWORD PTR tv72[ebp]
	add	ecx, DWORD PTR [eax+4]
	call	?rdbuf@?$basic_ios@DU?$char_traits@D@std@@@std@@QBEPAV?$basic_streambuf@DU?$char_traits@D@std@@@2@XZ ; std::basic_ios<char,std::char_traits<char> >::rdbuf
	mov	DWORD PTR __Rdbuf$[ebp], eax
; Line 78
	cmp	DWORD PTR __Rdbuf$[ebp], 0
	je	SHORT $LN1@Sentry_bas
; Line 79
	mov	ecx, DWORD PTR __Rdbuf$[ebp]
	mov	edx, DWORD PTR [ecx]
	mov	ecx, DWORD PTR __Rdbuf$[ebp]
	mov	eax, DWORD PTR [edx+8]
	call	eax
$LN1@Sentry_bas:
; Line 81
	mov	esp, ebp
	pop	ebp
	ret	0
??1_Sentry_base@?$basic_ostream@DU?$char_traits@D@std@@@std@@QAE@XZ ENDP ; std::basic_ostream<char,std::char_traits<char> >::_Sentry_base::~_Sentry_base
_TEXT	ENDS
; Function compile flags: /Odtp
;	COMDAT ??0_Sentry_base@?$basic_ostream@DU?$char_traits@D@std@@@std@@QAE@AAV12@@Z
_TEXT	SEGMENT
tv73 = -12						; size = 4
_this$ = -8						; size = 4
__Rdbuf$ = -4						; size = 4
__Ostr$ = 8						; size = 4
??0_Sentry_base@?$basic_ostream@DU?$char_traits@D@std@@@std@@QAE@AAV12@@Z PROC ; std::basic_ostream<char,std::char_traits<char> >::_Sentry_base::_Sentry_base, COMDAT
; _this$ = ecx
; File C:\Program Files (x86)\Microsoft Visual Studio\2019\Preview\VC\Tools\MSVC\14.23.28008\include\ostream
; Line 69
	push	ebp
	mov	ebp, esp
	sub	esp, 12					; 0000000cH
	mov	DWORD PTR _this$[ebp], ecx
	mov	eax, DWORD PTR _this$[ebp]
	mov	ecx, DWORD PTR __Ostr$[ebp]
	mov	DWORD PTR [eax], ecx
; Line 70
	mov	edx, DWORD PTR _this$[ebp]
	mov	eax, DWORD PTR [edx]
	mov	DWORD PTR tv73[ebp], eax
	mov	ecx, DWORD PTR tv73[ebp]
	mov	edx, DWORD PTR [ecx]
	mov	ecx, DWORD PTR tv73[ebp]
	add	ecx, DWORD PTR [edx+4]
	call	?rdbuf@?$basic_ios@DU?$char_traits@D@std@@@std@@QBEPAV?$basic_streambuf@DU?$char_traits@D@std@@@2@XZ ; std::basic_ios<char,std::char_traits<char> >::rdbuf
	mov	DWORD PTR __Rdbuf$[ebp], eax
; Line 71
	cmp	DWORD PTR __Rdbuf$[ebp], 0
	je	SHORT $LN1@Sentry_bas
; Line 72
	mov	eax, DWORD PTR __Rdbuf$[ebp]
	mov	edx, DWORD PTR [eax]
	mov	ecx, DWORD PTR __Rdbuf$[ebp]
	mov	eax, DWORD PTR [edx+4]
	call	eax
$LN1@Sentry_bas:
; Line 74
	mov	eax, DWORD PTR _this$[ebp]
	mov	esp, ebp
	pop	ebp
	ret	4
??0_Sentry_base@?$basic_ostream@DU?$char_traits@D@std@@@std@@QAE@AAV12@@Z ENDP ; std::basic_ostream<char,std::char_traits<char> >::_Sentry_base::_Sentry_base
_TEXT	ENDS
; Function compile flags: /Odtp
;	COMDAT ??$_Immortalize_impl@V_Iostream_error_category@std@@@std@@YGHPAX0PAPAX@Z
_TEXT	SEGMENT
$T1 = -4						; size = 4
___formal$ = 8						; size = 4
__Storage_ptr$ = 12					; size = 4
___formal$ = 16						; size = 4
??$_Immortalize_impl@V_Iostream_error_category@std@@@std@@YGHPAX0PAPAX@Z PROC ; std::_Immortalize_impl<std::_Iostream_error_category>, COMDAT
; File C:\Program Files (x86)\Microsoft Visual Studio\2019\Preview\VC\Tools\MSVC\14.23.28008\include\xcall_once.h
; Line 55
	push	ebp
	mov	ebp, esp
	push	ecx
; Line 57
	mov	eax, DWORD PTR __Storage_ptr$[ebp]
	push	eax
	push	8
	call	??2@YAPAXIPAX@Z				; operator new
	add	esp, 8
	mov	DWORD PTR $T1[ebp], eax
	mov	ecx, DWORD PTR $T1[ebp]
	call	??0_Iostream_error_category@std@@QAE@XZ	; std::_Iostream_error_category::_Iostream_error_category
; Line 58
	mov	eax, 1
; Line 59
	mov	esp, ebp
	pop	ebp
	ret	12					; 0000000cH
??$_Immortalize_impl@V_Iostream_error_category@std@@@std@@YGHPAX0PAPAX@Z ENDP ; std::_Immortalize_impl<std::_Iostream_error_category>
_TEXT	ENDS
; Function compile flags: /Odtp
;	COMDAT ??$addressof@$$CBV?$_String_val@U?$_Simple_types@D@std@@@std@@@std@@YAPBV?$_String_val@U?$_Simple_types@D@std@@@0@ABV10@@Z
_TEXT	SEGMENT
__Val$ = 8						; size = 4
??$addressof@$$CBV?$_String_val@U?$_Simple_types@D@std@@@std@@@std@@YAPBV?$_String_val@U?$_Simple_types@D@std@@@0@ABV10@@Z PROC ; std::addressof<std::_String_val<std::_Simple_types<char> > const >, COMDAT
; File C:\Program Files (x86)\Microsoft Visual Studio\2019\Preview\VC\Tools\MSVC\14.23.28008\include\xstddef
; Line 279
	push	ebp
	mov	ebp, esp
; Line 280
	mov	eax, DWORD PTR __Val$[ebp]
; Line 281
	pop	ebp
	ret	0
??$addressof@$$CBV?$_String_val@U?$_Simple_types@D@std@@@std@@@std@@YAPBV?$_String_val@U?$_Simple_types@D@std@@@0@ABV10@@Z ENDP ; std::addressof<std::_String_val<std::_Simple_types<char> > const >
_TEXT	ENDS
; Function compile flags: /Odtp
;	COMDAT ??$addressof@V?$_String_val@U?$_Simple_types@D@std@@@std@@@std@@YAPAV?$_String_val@U?$_Simple_types@D@std@@@0@AAV10@@Z
_TEXT	SEGMENT
__Val$ = 8						; size = 4
??$addressof@V?$_String_val@U?$_Simple_types@D@std@@@std@@@std@@YAPAV?$_String_val@U?$_Simple_types@D@std@@@0@AAV10@@Z PROC ; std::addressof<std::_String_val<std::_Simple_types<char> > >, COMDAT
; File C:\Program Files (x86)\Microsoft Visual Studio\2019\Preview\VC\Tools\MSVC\14.23.28008\include\xstddef
; Line 279
	push	ebp
	mov	ebp, esp
; Line 280
	mov	eax, DWORD PTR __Val$[ebp]
; Line 281
	pop	ebp
	ret	0
??$addressof@V?$_String_val@U?$_Simple_types@D@std@@@std@@@std@@YAPAV?$_String_val@U?$_Simple_types@D@std@@@0@AAV10@@Z ENDP ; std::addressof<std::_String_val<std::_Simple_types<char> > >
_TEXT	ENDS
; Function compile flags: /Odtp
;	COMDAT ??$_Deallocate@$07$0A@@std@@YAXPAXI@Z
_TEXT	SEGMENT
__Ptr$ = 8						; size = 4
__Bytes$ = 12						; size = 4
??$_Deallocate@$07$0A@@std@@YAXPAXI@Z PROC		; std::_Deallocate<8,0>, COMDAT
; File C:\Program Files (x86)\Microsoft Visual Studio\2019\Preview\VC\Tools\MSVC\14.23.28008\include\xmemory
; Line 183
	push	ebp
	mov	ebp, esp
; Line 186
	cmp	DWORD PTR __Bytes$[ebp], 4096		; 00001000H
	jb	SHORT $LN2@Deallocate
; Line 187
	lea	eax, DWORD PTR __Bytes$[ebp]
	push	eax
	lea	ecx, DWORD PTR __Ptr$[ebp]
	push	ecx
	call	?_Adjust_manually_vector_aligned@std@@YAXAAPAXAAI@Z ; std::_Adjust_manually_vector_aligned
	add	esp, 8
$LN2@Deallocate:
; Line 191
	mov	edx, DWORD PTR __Bytes$[ebp]
	push	edx
	mov	eax, DWORD PTR __Ptr$[ebp]
	push	eax
	call	??3@YAXPAXI@Z				; operator delete
	add	esp, 8
; Line 192
	pop	ebp
	ret	0
??$_Deallocate@$07$0A@@std@@YAXPAXI@Z ENDP		; std::_Deallocate<8,0>
_TEXT	ENDS
; Function compile flags: /Odtp
;	COMDAT ??$_Allocate@$07U_Default_allocate_traits@std@@$0A@@std@@YAPAXI@Z
_TEXT	SEGMENT
__Bytes$ = 8						; size = 4
??$_Allocate@$07U_Default_allocate_traits@std@@$0A@@std@@YAPAXI@Z PROC ; std::_Allocate<8,std::_Default_allocate_traits,0>, COMDAT
; File C:\Program Files (x86)\Microsoft Visual Studio\2019\Preview\VC\Tools\MSVC\14.23.28008\include\xmemory
; Line 167
	push	ebp
	mov	ebp, esp
; Line 170
	cmp	DWORD PTR __Bytes$[ebp], 4096		; 00001000H
	jb	SHORT $LN2@Allocate
; Line 171
	mov	eax, DWORD PTR __Bytes$[ebp]
	push	eax
	call	??$_Allocate_manually_vector_aligned@U_Default_allocate_traits@std@@@std@@YAPAXI@Z ; std::_Allocate_manually_vector_aligned<std::_Default_allocate_traits>
	add	esp, 4
	jmp	SHORT $LN1@Allocate
$LN2@Allocate:
; Line 175
	cmp	DWORD PTR __Bytes$[ebp], 0
	je	SHORT $LN3@Allocate
; Line 176
	mov	ecx, DWORD PTR __Bytes$[ebp]
	push	ecx
	call	?_Allocate@_Default_allocate_traits@std@@SAPAXI@Z ; std::_Default_allocate_traits::_Allocate
	add	esp, 4
	jmp	SHORT $LN1@Allocate
$LN3@Allocate:
; Line 179
	xor	eax, eax
$LN1@Allocate:
; Line 180
	pop	ebp
	ret	0
??$_Allocate@$07U_Default_allocate_traits@std@@$0A@@std@@YAPAXI@Z ENDP ; std::_Allocate<8,std::_Default_allocate_traits,0>
_TEXT	ENDS
; Function compile flags: /Odtp
;	COMDAT ??$_Get_size_of_n@$00@std@@YAII@Z
_TEXT	SEGMENT
__Overflow_is_possible$ = -1				; size = 1
__Count$ = 8						; size = 4
??$_Get_size_of_n@$00@std@@YAII@Z PROC			; std::_Get_size_of_n<1>, COMDAT
; File C:\Program Files (x86)\Microsoft Visual Studio\2019\Preview\VC\Tools\MSVC\14.23.28008\include\xmemory
; Line 24
	push	ebp
	mov	ebp, esp
	push	ecx
; Line 25
	mov	BYTE PTR __Overflow_is_possible$[ebp], 0
; Line 35
	mov	eax, DWORD PTR __Count$[ebp]
; Line 36
	mov	esp, ebp
	pop	ebp
	ret	0
??$_Get_size_of_n@$00@std@@YAII@Z ENDP			; std::_Get_size_of_n<1>
_TEXT	ENDS
; Function compile flags: /Odtp
;	COMDAT ??$_Construct_in_place@PADABQAD@std@@YAXAAPADABQAD@Z
_TEXT	SEGMENT
$T1 = -4						; size = 4
__Obj$ = 8						; size = 4
_<_Args_0>$ = 12					; size = 4
??$_Construct_in_place@PADABQAD@std@@YAXAAPADABQAD@Z PROC ; std::_Construct_in_place<char *,char * const &>, COMDAT
; File C:\Program Files (x86)\Microsoft Visual Studio\2019\Preview\VC\Tools\MSVC\14.23.28008\include\xmemory
; Line 198
	push	ebp
	mov	ebp, esp
	push	ecx
; Line 199
	mov	eax, DWORD PTR __Obj$[ebp]
	push	eax
	call	??$addressof@PAD@std@@YAPAPADAAPAD@Z	; std::addressof<char *>
	add	esp, 4
	push	eax
	push	4
	call	??2@YAPAXIPAX@Z				; operator new
	add	esp, 8
	mov	DWORD PTR $T1[ebp], eax
	mov	ecx, DWORD PTR _<_Args_0>$[ebp]
	push	ecx
	call	??$forward@ABQAD@std@@YAABQADABQAD@Z	; std::forward<char * const &>
	add	esp, 4
	mov	edx, DWORD PTR $T1[ebp]
	mov	eax, DWORD PTR [eax]
	mov	DWORD PTR [edx], eax
; Line 201
	mov	esp, ebp
	pop	ebp
	ret	0
??$_Construct_in_place@PADABQAD@std@@YAXAAPADABQAD@Z ENDP ; std::_Construct_in_place<char *,char * const &>
_TEXT	ENDS
; Function compile flags: /Odtp
;	COMDAT ??$_Reallocate_grow_by@V<lambda_ab246b20b9526e2ef7792587e4298a77>@@PBDI@?$basic_string@DU?$char_traits@D@std@@V?$allocator@D@2@@std@@AAEAAV01@IV<lambda_ab246b20b9526e2ef7792587e4298a77>@@PBDI@Z
_TEXT	SEGMENT
__Raw_new$ = -40					; size = 4
__Al$ = -36						; size = 4
__Old_ptr$1 = -32					; size = 4
__Old_capacity$ = -28					; size = 4
__New_capacity$ = -24					; size = 4
__New_size$ = -20					; size = 4
__New_ptr$ = -16					; size = 4
__Old_size$ = -12					; size = 4
_this$ = -8						; size = 4
__My_data$ = -4						; size = 4
__Size_increase$ = 8					; size = 4
__Fn$ = 12						; size = 1
_<_Args_0>$ = 16					; size = 4
_<_Args_1>$ = 20					; size = 4
??$_Reallocate_grow_by@V<lambda_ab246b20b9526e2ef7792587e4298a77>@@PBDI@?$basic_string@DU?$char_traits@D@std@@V?$allocator@D@2@@std@@AAEAAV01@IV<lambda_ab246b20b9526e2ef7792587e4298a77>@@PBDI@Z PROC ; std::basic_string<char,std::char_traits<char>,std::allocator<char> >::_Reallocate_grow_by<<lambda_ab246b20b9526e2ef7792587e4298a77>,char const *,unsigned int>, COMDAT
; _this$ = ecx
; File C:\Program Files (x86)\Microsoft Visual Studio\2019\Preview\VC\Tools\MSVC\14.23.28008\include\xstring
; Line 4108
	push	ebp
	mov	ebp, esp
	sub	esp, 40					; 00000028H
	mov	DWORD PTR _this$[ebp], ecx
; Line 4111
	mov	eax, DWORD PTR _this$[ebp]
	mov	DWORD PTR __My_data$[ebp], eax
; Line 4112
	mov	ecx, DWORD PTR __My_data$[ebp]
	mov	edx, DWORD PTR [ecx+16]
	mov	DWORD PTR __Old_size$[ebp], edx
; Line 4113
	mov	ecx, DWORD PTR _this$[ebp]
	call	?max_size@?$basic_string@DU?$char_traits@D@std@@V?$allocator@D@2@@std@@QBEIXZ ; std::basic_string<char,std::char_traits<char>,std::allocator<char> >::max_size
	sub	eax, DWORD PTR __Old_size$[ebp]
	cmp	eax, DWORD PTR __Size_increase$[ebp]
	jae	SHORT $LN2@Reallocate
; Line 4114
	call	?_Xlen@?$basic_string@DU?$char_traits@D@std@@V?$allocator@D@2@@std@@CAXXZ ; std::basic_string<char,std::char_traits<char>,std::allocator<char> >::_Xlen
$LN2@Reallocate:
; Line 4117
	mov	eax, DWORD PTR __Old_size$[ebp]
	add	eax, DWORD PTR __Size_increase$[ebp]
	mov	DWORD PTR __New_size$[ebp], eax
; Line 4118
	mov	ecx, DWORD PTR __My_data$[ebp]
	mov	edx, DWORD PTR [ecx+20]
	mov	DWORD PTR __Old_capacity$[ebp], edx
; Line 4119
	mov	eax, DWORD PTR __New_size$[ebp]
	push	eax
	mov	ecx, DWORD PTR _this$[ebp]
	call	?_Calculate_growth@?$basic_string@DU?$char_traits@D@std@@V?$allocator@D@2@@std@@ABEII@Z ; std::basic_string<char,std::char_traits<char>,std::allocator<char> >::_Calculate_growth
	mov	DWORD PTR __New_capacity$[ebp], eax
; Line 4120
	mov	ecx, DWORD PTR _this$[ebp]
	call	?_Getal@?$basic_string@DU?$char_traits@D@std@@V?$allocator@D@2@@std@@AAEAAV?$allocator@D@2@XZ ; std::basic_string<char,std::char_traits<char>,std::allocator<char> >::_Getal
	mov	DWORD PTR __Al$[ebp], eax
; Line 4121
	mov	ecx, DWORD PTR __New_capacity$[ebp]
	add	ecx, 1
	push	ecx
	mov	ecx, DWORD PTR __Al$[ebp]
	call	?allocate@?$allocator@D@std@@QAEPADI@Z	; std::allocator<char>::allocate
	mov	DWORD PTR __New_ptr$[ebp], eax
; Line 4122
	mov	ecx, DWORD PTR __My_data$[ebp]
	call	?_Orphan_all@_Container_base0@std@@QAEXXZ ; std::_Container_base0::_Orphan_all
; Line 4123
	mov	edx, DWORD PTR __My_data$[ebp]
	mov	eax, DWORD PTR __New_size$[ebp]
	mov	DWORD PTR [edx+16], eax
; Line 4124
	mov	ecx, DWORD PTR __My_data$[ebp]
	mov	edx, DWORD PTR __New_capacity$[ebp]
	mov	DWORD PTR [ecx+20], edx
; Line 4125
	mov	eax, DWORD PTR __New_ptr$[ebp]
	push	eax
	call	??$_Unfancy@D@std@@YAPADPAD@Z		; std::_Unfancy<char>
	add	esp, 4
	mov	DWORD PTR __Raw_new$[ebp], eax
; Line 4126
	cmp	DWORD PTR __Old_capacity$[ebp], 16	; 00000010H
	jb	SHORT $LN3@Reallocate
; Line 4127
	mov	ecx, DWORD PTR __My_data$[ebp]
	mov	edx, DWORD PTR [ecx]
	mov	DWORD PTR __Old_ptr$1[ebp], edx
; Line 4128
	mov	eax, DWORD PTR _<_Args_1>$[ebp]
	push	eax
	mov	ecx, DWORD PTR _<_Args_0>$[ebp]
	push	ecx
	mov	edx, DWORD PTR __Old_size$[ebp]
	push	edx
	mov	eax, DWORD PTR __Old_ptr$1[ebp]
	push	eax
	call	??$_Unfancy@D@std@@YAPADPAD@Z		; std::_Unfancy<char>
	add	esp, 4
	push	eax
	mov	ecx, DWORD PTR __Raw_new$[ebp]
	push	ecx
	lea	ecx, DWORD PTR __Fn$[ebp]
	call	??R<lambda_ab246b20b9526e2ef7792587e4298a77>@@QBEXQADQBDI1I@Z ; <lambda_ab246b20b9526e2ef7792587e4298a77>::operator()
; Line 4129
	mov	edx, DWORD PTR __Old_capacity$[ebp]
	add	edx, 1
	push	edx
	mov	eax, DWORD PTR __Old_ptr$1[ebp]
	push	eax
	mov	ecx, DWORD PTR __Al$[ebp]
	call	?deallocate@?$allocator@D@std@@QAEXQADI@Z ; std::allocator<char>::deallocate
; Line 4130
	mov	ecx, DWORD PTR __My_data$[ebp]
	mov	edx, DWORD PTR __New_ptr$[ebp]
	mov	DWORD PTR [ecx], edx
; Line 4131
	jmp	SHORT $LN4@Reallocate
$LN3@Reallocate:
; Line 4132
	mov	eax, DWORD PTR _<_Args_1>$[ebp]
	push	eax
	mov	ecx, DWORD PTR _<_Args_0>$[ebp]
	push	ecx
	mov	edx, DWORD PTR __Old_size$[ebp]
	push	edx
	mov	eax, DWORD PTR __My_data$[ebp]
	push	eax
	mov	ecx, DWORD PTR __Raw_new$[ebp]
	push	ecx
	lea	ecx, DWORD PTR __Fn$[ebp]
	call	??R<lambda_ab246b20b9526e2ef7792587e4298a77>@@QBEXQADQBDI1I@Z ; <lambda_ab246b20b9526e2ef7792587e4298a77>::operator()
; Line 4133
	lea	edx, DWORD PTR __New_ptr$[ebp]
	push	edx
	mov	eax, DWORD PTR __My_data$[ebp]
	push	eax
	call	??$_Construct_in_place@PADABQAD@std@@YAXAAPADABQAD@Z ; std::_Construct_in_place<char *,char * const &>
	add	esp, 8
$LN4@Reallocate:
; Line 4136
	mov	eax, DWORD PTR _this$[ebp]
$LN5@Reallocate:
; Line 4137
	mov	esp, ebp
	pop	ebp
	ret	16					; 00000010H
??$_Reallocate_grow_by@V<lambda_ab246b20b9526e2ef7792587e4298a77>@@PBDI@?$basic_string@DU?$char_traits@D@std@@V?$allocator@D@2@@std@@AAEAAV01@IV<lambda_ab246b20b9526e2ef7792587e4298a77>@@PBDI@Z ENDP ; std::basic_string<char,std::char_traits<char>,std::allocator<char> >::_Reallocate_grow_by<<lambda_ab246b20b9526e2ef7792587e4298a77>,char const *,unsigned int>
_TEXT	ENDS
; Function compile flags: /Odtp
;	COMDAT ??R<lambda_ab246b20b9526e2ef7792587e4298a77>@@QBEXQADQBDI1I@Z
_TEXT	SEGMENT
_this$ = -8						; size = 4
$T1 = -1						; size = 1
__New_ptr$ = 8						; size = 4
__Old_ptr$ = 12						; size = 4
__Old_size$ = 16					; size = 4
__Ptr$ = 20						; size = 4
__Count$ = 24						; size = 4
??R<lambda_ab246b20b9526e2ef7792587e4298a77>@@QBEXQADQBDI1I@Z PROC ; <lambda_ab246b20b9526e2ef7792587e4298a77>::operator(), COMDAT
; _this$ = ecx
; File C:\Program Files (x86)\Microsoft Visual Studio\2019\Preview\VC\Tools\MSVC\14.23.28008\include\xstring
; Line 2748
	push	ebp
	mov	ebp, esp
	sub	esp, 8
	mov	DWORD PTR _this$[ebp], ecx
; Line 2749
	mov	eax, DWORD PTR __Old_size$[ebp]
	push	eax
	mov	ecx, DWORD PTR __Old_ptr$[ebp]
	push	ecx
	mov	edx, DWORD PTR __New_ptr$[ebp]
	push	edx
	call	?copy@?$_Narrow_char_traits@DH@std@@SAPADQADQBDI@Z ; std::_Narrow_char_traits<char,int>::copy
	add	esp, 12					; 0000000cH
; Line 2750
	mov	eax, DWORD PTR __Count$[ebp]
	push	eax
	mov	ecx, DWORD PTR __Ptr$[ebp]
	push	ecx
	mov	edx, DWORD PTR __New_ptr$[ebp]
	add	edx, DWORD PTR __Old_size$[ebp]
	push	edx
	call	?copy@?$_Narrow_char_traits@DH@std@@SAPADQADQBDI@Z ; std::_Narrow_char_traits<char,int>::copy
	add	esp, 12					; 0000000cH
; Line 2751
	mov	BYTE PTR $T1[ebp], 0
	lea	eax, DWORD PTR $T1[ebp]
	push	eax
	mov	ecx, DWORD PTR __Old_size$[ebp]
	add	ecx, DWORD PTR __Count$[ebp]
	add	ecx, DWORD PTR __New_ptr$[ebp]
	push	ecx
	call	?assign@?$_Narrow_char_traits@DH@std@@SAXAADABD@Z ; std::_Narrow_char_traits<char,int>::assign
	add	esp, 8
; Line 2752
	mov	esp, ebp
	pop	ebp
	ret	20					; 00000014H
??R<lambda_ab246b20b9526e2ef7792587e4298a77>@@QBEXQADQBDI1I@Z ENDP ; <lambda_ab246b20b9526e2ef7792587e4298a77>::operator()
_TEXT	ENDS
; Function compile flags: /Odtp
;	COMDAT ??$_Reallocate_for@V<lambda_9366063389c5f42a00a5088cf24e69de>@@PBD@?$basic_string@DU?$char_traits@D@std@@V?$allocator@D@2@@std@@AAEAAV01@IV<lambda_9366063389c5f42a00a5088cf24e69de>@@PBD@Z
_TEXT	SEGMENT
__Al$ = -20						; size = 4
__Old_capacity$ = -16					; size = 4
__New_capacity$ = -12					; size = 4
__New_ptr$ = -8						; size = 4
_this$ = -4						; size = 4
__New_size$ = 8						; size = 4
__Fn$ = 12						; size = 1
_<_Args_0>$ = 16					; size = 4
??$_Reallocate_for@V<lambda_9366063389c5f42a00a5088cf24e69de>@@PBD@?$basic_string@DU?$char_traits@D@std@@V?$allocator@D@2@@std@@AAEAAV01@IV<lambda_9366063389c5f42a00a5088cf24e69de>@@PBD@Z PROC ; std::basic_string<char,std::char_traits<char>,std::allocator<char> >::_Reallocate_for<<lambda_9366063389c5f42a00a5088cf24e69de>,char const *>, COMDAT
; _this$ = ecx
; File C:\Program Files (x86)\Microsoft Visual Studio\2019\Preview\VC\Tools\MSVC\14.23.28008\include\xstring
; Line 4082
	push	ebp
	mov	ebp, esp
	sub	esp, 20					; 00000014H
	mov	DWORD PTR _this$[ebp], ecx
; Line 4085
	mov	ecx, DWORD PTR _this$[ebp]
	call	?max_size@?$basic_string@DU?$char_traits@D@std@@V?$allocator@D@2@@std@@QBEIXZ ; std::basic_string<char,std::char_traits<char>,std::allocator<char> >::max_size
	cmp	DWORD PTR __New_size$[ebp], eax
	jbe	SHORT $LN2@Reallocate
; Line 4086
	call	?_Xlen@?$basic_string@DU?$char_traits@D@std@@V?$allocator@D@2@@std@@CAXXZ ; std::basic_string<char,std::char_traits<char>,std::allocator<char> >::_Xlen
$LN2@Reallocate:
; Line 4089
	mov	eax, DWORD PTR _this$[ebp]
	mov	ecx, DWORD PTR [eax+20]
	mov	DWORD PTR __Old_capacity$[ebp], ecx
; Line 4090
	mov	edx, DWORD PTR __New_size$[ebp]
	push	edx
	mov	ecx, DWORD PTR _this$[ebp]
	call	?_Calculate_growth@?$basic_string@DU?$char_traits@D@std@@V?$allocator@D@2@@std@@ABEII@Z ; std::basic_string<char,std::char_traits<char>,std::allocator<char> >::_Calculate_growth
	mov	DWORD PTR __New_capacity$[ebp], eax
; Line 4091
	mov	ecx, DWORD PTR _this$[ebp]
	call	?_Getal@?$basic_string@DU?$char_traits@D@std@@V?$allocator@D@2@@std@@AAEAAV?$allocator@D@2@XZ ; std::basic_string<char,std::char_traits<char>,std::allocator<char> >::_Getal
	mov	DWORD PTR __Al$[ebp], eax
; Line 4092
	mov	eax, DWORD PTR __New_capacity$[ebp]
	add	eax, 1
	push	eax
	mov	ecx, DWORD PTR __Al$[ebp]
	call	?allocate@?$allocator@D@std@@QAEPADI@Z	; std::allocator<char>::allocate
	mov	DWORD PTR __New_ptr$[ebp], eax
; Line 4093
	mov	ecx, DWORD PTR _this$[ebp]
	call	?_Orphan_all@_Container_base0@std@@QAEXXZ ; std::_Container_base0::_Orphan_all
; Line 4094
	mov	ecx, DWORD PTR _this$[ebp]
	mov	edx, DWORD PTR __New_size$[ebp]
	mov	DWORD PTR [ecx+16], edx
; Line 4095
	mov	eax, DWORD PTR _this$[ebp]
	mov	ecx, DWORD PTR __New_capacity$[ebp]
	mov	DWORD PTR [eax+20], ecx
; Line 4096
	mov	edx, DWORD PTR _<_Args_0>$[ebp]
	push	edx
	mov	eax, DWORD PTR __New_size$[ebp]
	push	eax
	mov	ecx, DWORD PTR __New_ptr$[ebp]
	push	ecx
	call	??$_Unfancy@D@std@@YAPADPAD@Z		; std::_Unfancy<char>
	add	esp, 4
	push	eax
	lea	ecx, DWORD PTR __Fn$[ebp]
	call	??R<lambda_9366063389c5f42a00a5088cf24e69de>@@QBEXQADIQBD@Z ; <lambda_9366063389c5f42a00a5088cf24e69de>::operator()
; Line 4097
	cmp	DWORD PTR __Old_capacity$[ebp], 16	; 00000010H
	jb	SHORT $LN3@Reallocate
; Line 4098
	mov	edx, DWORD PTR __Old_capacity$[ebp]
	add	edx, 1
	push	edx
	mov	eax, DWORD PTR _this$[ebp]
	mov	ecx, DWORD PTR [eax]
	push	ecx
	mov	ecx, DWORD PTR __Al$[ebp]
	call	?deallocate@?$allocator@D@std@@QAEXQADI@Z ; std::allocator<char>::deallocate
; Line 4099
	mov	edx, DWORD PTR _this$[ebp]
	mov	eax, DWORD PTR __New_ptr$[ebp]
	mov	DWORD PTR [edx], eax
; Line 4100
	jmp	SHORT $LN4@Reallocate
$LN3@Reallocate:
; Line 4101
	lea	ecx, DWORD PTR __New_ptr$[ebp]
	push	ecx
	mov	edx, DWORD PTR _this$[ebp]
	push	edx
	call	??$_Construct_in_place@PADABQAD@std@@YAXAAPADABQAD@Z ; std::_Construct_in_place<char *,char * const &>
	add	esp, 8
$LN4@Reallocate:
; Line 4104
	mov	eax, DWORD PTR _this$[ebp]
$LN5@Reallocate:
; Line 4105
	mov	esp, ebp
	pop	ebp
	ret	12					; 0000000cH
??$_Reallocate_for@V<lambda_9366063389c5f42a00a5088cf24e69de>@@PBD@?$basic_string@DU?$char_traits@D@std@@V?$allocator@D@2@@std@@AAEAAV01@IV<lambda_9366063389c5f42a00a5088cf24e69de>@@PBD@Z ENDP ; std::basic_string<char,std::char_traits<char>,std::allocator<char> >::_Reallocate_for<<lambda_9366063389c5f42a00a5088cf24e69de>,char const *>
_TEXT	ENDS
; Function compile flags: /Odtp
;	COMDAT ??R<lambda_9366063389c5f42a00a5088cf24e69de>@@QBEXQADIQBD@Z
_TEXT	SEGMENT
_this$ = -8						; size = 4
$T1 = -1						; size = 1
__New_ptr$ = 8						; size = 4
__Count$ = 12						; size = 4
__Ptr$ = 16						; size = 4
??R<lambda_9366063389c5f42a00a5088cf24e69de>@@QBEXQADIQBD@Z PROC ; <lambda_9366063389c5f42a00a5088cf24e69de>::operator(), COMDAT
; _this$ = ecx
; File C:\Program Files (x86)\Microsoft Visual Studio\2019\Preview\VC\Tools\MSVC\14.23.28008\include\xstring
; Line 2853
	push	ebp
	mov	ebp, esp
	sub	esp, 8
	mov	DWORD PTR _this$[ebp], ecx
; Line 2854
	mov	eax, DWORD PTR __Count$[ebp]
	push	eax
	mov	ecx, DWORD PTR __Ptr$[ebp]
	push	ecx
	mov	edx, DWORD PTR __New_ptr$[ebp]
	push	edx
	call	?copy@?$_Narrow_char_traits@DH@std@@SAPADQADQBDI@Z ; std::_Narrow_char_traits<char,int>::copy
	add	esp, 12					; 0000000cH
; Line 2855
	mov	BYTE PTR $T1[ebp], 0
	lea	eax, DWORD PTR $T1[ebp]
	push	eax
	mov	ecx, DWORD PTR __New_ptr$[ebp]
	add	ecx, DWORD PTR __Count$[ebp]
	push	ecx
	call	?assign@?$_Narrow_char_traits@DH@std@@SAXAADABD@Z ; std::_Narrow_char_traits<char,int>::assign
	add	esp, 8
; Line 2856
	mov	esp, ebp
	pop	ebp
	ret	12					; 0000000cH
??R<lambda_9366063389c5f42a00a5088cf24e69de>@@QBEXQADIQBD@Z ENDP ; <lambda_9366063389c5f42a00a5088cf24e69de>::operator()
_TEXT	ENDS
; Function compile flags: /Odtp
;	COMDAT ??$_Max_value@I@std@@YAABIABI0@Z
_TEXT	SEGMENT
$T1 = -8						; size = 4
tv65 = -4						; size = 4
__Left$ = 8						; size = 4
__Right$ = 12						; size = 4
??$_Max_value@I@std@@YAABIABI0@Z PROC			; std::_Max_value<unsigned int>, COMDAT
; File C:\Program Files (x86)\Microsoft Visual Studio\2019\Preview\VC\Tools\MSVC\14.23.28008\include\utility
; Line 32
	push	ebp
	mov	ebp, esp
	sub	esp, 8
; Line 33
	mov	eax, DWORD PTR __Left$[ebp]
	mov	ecx, DWORD PTR __Right$[ebp]
	mov	edx, DWORD PTR [eax]
	cmp	edx, DWORD PTR [ecx]
	jae	SHORT $LN3@Max_value
	mov	eax, DWORD PTR __Right$[ebp]
	mov	DWORD PTR tv65[ebp], eax
	jmp	SHORT $LN4@Max_value
$LN3@Max_value:
	mov	ecx, DWORD PTR __Left$[ebp]
	mov	DWORD PTR tv65[ebp], ecx
$LN4@Max_value:
	mov	edx, DWORD PTR tv65[ebp]
	mov	DWORD PTR $T1[ebp], edx
	mov	eax, DWORD PTR $T1[ebp]
; Line 34
	mov	esp, ebp
	pop	ebp
	ret	0
??$_Max_value@I@std@@YAABIABI0@Z ENDP			; std::_Max_value<unsigned int>
_TEXT	ENDS
; Function compile flags: /Odtp
;	COMDAT ??$_Destroy_in_place@PAD@std@@YAXAAPAD@Z
_TEXT	SEGMENT
__Obj$ = 8						; size = 4
??$_Destroy_in_place@PAD@std@@YAXAAPAD@Z PROC		; std::_Destroy_in_place<char *>, COMDAT
; File C:\Program Files (x86)\Microsoft Visual Studio\2019\Preview\VC\Tools\MSVC\14.23.28008\include\xmemory
; Line 321
	push	ebp
	mov	ebp, esp
; Line 323
	pop	ebp
	ret	0
??$_Destroy_in_place@PAD@std@@YAXAAPAD@Z ENDP		; std::_Destroy_in_place<char *>
_TEXT	ENDS
; Function compile flags: /Odtp
;	COMDAT ??$?0$$V@?$_Compressed_pair@V?$allocator@D@std@@V?$_String_val@U?$_Simple_types@D@std@@@2@$00@std@@QAE@U_Zero_then_variadic_args_t@1@@Z
_TEXT	SEGMENT
_this$ = -4						; size = 4
___formal$ = 8						; size = 1
??$?0$$V@?$_Compressed_pair@V?$allocator@D@std@@V?$_String_val@U?$_Simple_types@D@std@@@2@$00@std@@QAE@U_Zero_then_variadic_args_t@1@@Z PROC ; std::_Compressed_pair<std::allocator<char>,std::_String_val<std::_Simple_types<char> >,1>::_Compressed_pair<std::allocator<char>,std::_String_val<std::_Simple_types<char> >,1><>, COMDAT
; _this$ = ecx
; File C:\Program Files (x86)\Microsoft Visual Studio\2019\Preview\VC\Tools\MSVC\14.23.28008\include\xmemory
; Line 1414
	push	ebp
	mov	ebp, esp
	push	ecx
	mov	DWORD PTR _this$[ebp], ecx
	mov	ecx, DWORD PTR _this$[ebp]
	call	??0?$allocator@D@std@@QAE@XZ		; std::allocator<char>::allocator<char>
	mov	ecx, DWORD PTR _this$[ebp]
	call	??0?$_String_val@U?$_Simple_types@D@std@@@std@@QAE@XZ ; std::_String_val<std::_Simple_types<char> >::_String_val<std::_Simple_types<char> >
	mov	eax, DWORD PTR _this$[ebp]
	mov	esp, ebp
	pop	ebp
	ret	4
??$?0$$V@?$_Compressed_pair@V?$allocator@D@std@@V?$_String_val@U?$_Simple_types@D@std@@@2@$00@std@@QAE@U_Zero_then_variadic_args_t@1@@Z ENDP ; std::_Compressed_pair<std::allocator<char>,std::_String_val<std::_Simple_types<char> >,1>::_Compressed_pair<std::allocator<char>,std::_String_val<std::_Simple_types<char> >,1><>
_TEXT	ENDS
; Function compile flags: /Odtp
;	COMDAT ??$?0V?$allocator@D@std@@$$V@?$_Compressed_pair@V?$allocator@D@std@@V?$_String_val@U?$_Simple_types@D@std@@@2@$00@std@@QAE@U_One_then_variadic_args_t@1@$$QAV?$allocator@D@1@@Z
_TEXT	SEGMENT
_this$ = -4						; size = 4
___formal$ = 8						; size = 1
__Val1$ = 12						; size = 4
??$?0V?$allocator@D@std@@$$V@?$_Compressed_pair@V?$allocator@D@std@@V?$_String_val@U?$_Simple_types@D@std@@@2@$00@std@@QAE@U_One_then_variadic_args_t@1@$$QAV?$allocator@D@1@@Z PROC ; std::_Compressed_pair<std::allocator<char>,std::_String_val<std::_Simple_types<char> >,1>::_Compressed_pair<std::allocator<char>,std::_String_val<std::_Simple_types<char> >,1><std::allocator<char> >, COMDAT
; _this$ = ecx
; File C:\Program Files (x86)\Microsoft Visual Studio\2019\Preview\VC\Tools\MSVC\14.23.28008\include\xmemory
; Line 1418
	push	ebp
	mov	ebp, esp
	push	ecx
	mov	DWORD PTR _this$[ebp], ecx
	mov	eax, DWORD PTR __Val1$[ebp]
	push	eax
	call	??$forward@V?$allocator@D@std@@@std@@YA$$QAV?$allocator@D@0@AAV10@@Z ; std::forward<std::allocator<char> >
	add	esp, 4
	mov	ecx, DWORD PTR _this$[ebp]
	call	??0?$_String_val@U?$_Simple_types@D@std@@@std@@QAE@XZ ; std::_String_val<std::_Simple_types<char> >::_String_val<std::_Simple_types<char> >
	mov	eax, DWORD PTR _this$[ebp]
	mov	esp, ebp
	pop	ebp
	ret	8
??$?0V?$allocator@D@std@@$$V@?$_Compressed_pair@V?$allocator@D@std@@V?$_String_val@U?$_Simple_types@D@std@@@2@$00@std@@QAE@U_One_then_variadic_args_t@1@$$QAV?$allocator@D@1@@Z ENDP ; std::_Compressed_pair<std::allocator<char>,std::_String_val<std::_Simple_types<char> >,1>::_Compressed_pair<std::allocator<char>,std::_String_val<std::_Simple_types<char> >,1><std::allocator<char> >
_TEXT	ENDS
; Function compile flags: /Odtp
;	COMDAT ??$move@AAV?$allocator@D@std@@@std@@YA$$QAV?$allocator@D@0@AAV10@@Z
_TEXT	SEGMENT
__Arg$ = 8						; size = 4
??$move@AAV?$allocator@D@std@@@std@@YA$$QAV?$allocator@D@0@AAV10@@Z PROC ; std::move<std::allocator<char> &>, COMDAT
; File C:\Program Files (x86)\Microsoft Visual Studio\2019\Preview\VC\Tools\MSVC\14.23.28008\include\type_traits
; Line 1432
	push	ebp
	mov	ebp, esp
; Line 1433
	mov	eax, DWORD PTR __Arg$[ebp]
; Line 1434
	pop	ebp
	ret	0
??$move@AAV?$allocator@D@std@@@std@@YA$$QAV?$allocator@D@0@AAV10@@Z ENDP ; std::move<std::allocator<char> &>
_TEXT	ENDS
; Function compile flags: /Odtp
;	COMDAT ??$_Unfancy@D@std@@YAPADPAD@Z
_TEXT	SEGMENT
__Ptr$ = 8						; size = 4
??$_Unfancy@D@std@@YAPADPAD@Z PROC			; std::_Unfancy<char>, COMDAT
; File C:\Program Files (x86)\Microsoft Visual Studio\2019\Preview\VC\Tools\MSVC\14.23.28008\include\xstddef
; Line 293
	push	ebp
	mov	ebp, esp
; Line 294
	mov	eax, DWORD PTR __Ptr$[ebp]
; Line 295
	pop	ebp
	ret	0
??$_Unfancy@D@std@@YAPADPAD@Z ENDP			; std::_Unfancy<char>
_TEXT	ENDS
; Function compile flags: /Odtp
;	COMDAT ??$_Min_value@I@std@@YAABIABI0@Z
_TEXT	SEGMENT
$T1 = -8						; size = 4
tv65 = -4						; size = 4
__Left$ = 8						; size = 4
__Right$ = 12						; size = 4
??$_Min_value@I@std@@YAABIABI0@Z PROC			; std::_Min_value<unsigned int>, COMDAT
; File C:\Program Files (x86)\Microsoft Visual Studio\2019\Preview\VC\Tools\MSVC\14.23.28008\include\utility
; Line 25
	push	ebp
	mov	ebp, esp
	sub	esp, 8
; Line 26
	mov	eax, DWORD PTR __Right$[ebp]
	mov	ecx, DWORD PTR __Left$[ebp]
	mov	edx, DWORD PTR [eax]
	cmp	edx, DWORD PTR [ecx]
	jae	SHORT $LN3@Min_value
	mov	eax, DWORD PTR __Right$[ebp]
	mov	DWORD PTR tv65[ebp], eax
	jmp	SHORT $LN4@Min_value
$LN3@Min_value:
	mov	ecx, DWORD PTR __Left$[ebp]
	mov	DWORD PTR tv65[ebp], ecx
$LN4@Min_value:
	mov	edx, DWORD PTR tv65[ebp]
	mov	DWORD PTR $T1[ebp], edx
	mov	eax, DWORD PTR $T1[ebp]
; Line 27
	mov	esp, ebp
	pop	ebp
	ret	0
??$_Min_value@I@std@@YAABIABI0@Z ENDP			; std::_Min_value<unsigned int>
_TEXT	ENDS
; Function compile flags: /Odtp
;	COMDAT ??$?6U?$char_traits@D@std@@@std@@YAAAV?$basic_ostream@DU?$char_traits@D@std@@@0@AAV10@PBD@Z
_TEXT	SEGMENT
__Ok$ = -96						; size = 8
tv390 = -88						; size = 8
tv328 = -80						; size = 8
tv316 = -72						; size = 8
tv135 = -64						; size = 8
__Count$ = -56						; size = 8
__Pad$ = -48						; size = 8
$T2 = -40						; size = 4
$T3 = -36						; size = 4
$T4 = -32						; size = 4
$T5 = -28						; size = 4
$T6 = -24						; size = 4
__State$ = -20						; size = 4
__$EHRec$ = -16						; size = 16
__Ostr$ = 8						; size = 4
__Val$ = 12						; size = 4
??$?6U?$char_traits@D@std@@@std@@YAAAV?$basic_ostream@DU?$char_traits@D@std@@@0@AAV10@PBD@Z PROC ; std::operator<<<std::char_traits<char> >, COMDAT
; File C:\Program Files (x86)\Microsoft Visual Studio\2019\Preview\VC\Tools\MSVC\14.23.28008\include\ostream
; Line 738
	push	ebp
	mov	ebp, esp
	push	-1
	push	__ehhandler$??$?6U?$char_traits@D@std@@@std@@YAAAV?$basic_ostream@DU?$char_traits@D@std@@@0@AAV10@PBD@Z
	mov	eax, DWORD PTR fs:0
	push	eax
	push	ecx
	sub	esp, 80					; 00000050H
	push	ebx
	push	esi
	push	edi
	mov	eax, DWORD PTR ___security_cookie
	xor	eax, ebp
	push	eax
	lea	eax, DWORD PTR __$EHRec$[ebp+4]
	mov	DWORD PTR fs:0, eax
	mov	DWORD PTR __$EHRec$[ebp], esp
; Line 742
	mov	DWORD PTR __State$[ebp], 0
; Line 743
	mov	eax, DWORD PTR __Val$[ebp]
	push	eax
	call	?length@?$_Narrow_char_traits@DH@std@@SAIQBD@Z ; std::_Narrow_char_traits<char,int>::length
	add	esp, 4
	xor	ecx, ecx
	mov	DWORD PTR __Count$[ebp], eax
	mov	DWORD PTR __Count$[ebp+4], ecx
; Line 744
	mov	edx, DWORD PTR __Ostr$[ebp]
	mov	eax, DWORD PTR [edx]
	mov	ecx, DWORD PTR __Ostr$[ebp]
	add	ecx, DWORD PTR [eax+4]
	call	?width@ios_base@std@@QBE_JXZ		; std::ios_base::width
	mov	DWORD PTR tv316[ebp], eax
	mov	DWORD PTR tv316[ebp+4], edx
	cmp	DWORD PTR tv316[ebp+4], 0
	jl	SHORT $LN17@operator
	jg	SHORT $LN23@operator
	cmp	DWORD PTR tv316[ebp], 0
	jbe	SHORT $LN17@operator
$LN23@operator:
	mov	ecx, DWORD PTR __Ostr$[ebp]
	mov	edx, DWORD PTR [ecx]
	mov	ecx, DWORD PTR __Ostr$[ebp]
	add	ecx, DWORD PTR [edx+4]
	call	?width@ios_base@std@@QBE_JXZ		; std::ios_base::width
	mov	DWORD PTR tv328[ebp], eax
	mov	DWORD PTR tv328[ebp+4], edx
	mov	eax, DWORD PTR tv328[ebp+4]
	cmp	eax, DWORD PTR __Count$[ebp+4]
	jl	SHORT $LN17@operator
	jg	SHORT $LN24@operator
	mov	ecx, DWORD PTR tv328[ebp]
	cmp	ecx, DWORD PTR __Count$[ebp]
	jbe	SHORT $LN17@operator
$LN24@operator:
	mov	edx, DWORD PTR __Ostr$[ebp]
	mov	eax, DWORD PTR [edx]
	mov	ecx, DWORD PTR __Ostr$[ebp]
	add	ecx, DWORD PTR [eax+4]
	call	?width@ios_base@std@@QBE_JXZ		; std::ios_base::width
	sub	eax, DWORD PTR __Count$[ebp]
	sbb	edx, DWORD PTR __Count$[ebp+4]
	mov	DWORD PTR tv135[ebp], eax
	mov	DWORD PTR tv135[ebp+4], edx
	jmp	SHORT $LN18@operator
$LN17@operator:
	xorps	xmm0, xmm0
	movlpd	QWORD PTR tv135[ebp], xmm0
$LN18@operator:
	mov	ecx, DWORD PTR tv135[ebp]
	mov	DWORD PTR __Pad$[ebp], ecx
	mov	edx, DWORD PTR tv135[ebp+4]
	mov	DWORD PTR __Pad$[ebp+4], edx
; Line 745
	mov	eax, DWORD PTR __Ostr$[ebp]
	push	eax
	lea	ecx, DWORD PTR __Ok$[ebp]
	call	??0sentry@?$basic_ostream@DU?$char_traits@D@std@@@std@@QAE@AAV12@@Z ; std::basic_ostream<char,std::char_traits<char> >::sentry::sentry
; Line 747
	lea	ecx, DWORD PTR __Ok$[ebp]
	call	??Bsentry@?$basic_ostream@DU?$char_traits@D@std@@@std@@QBE_NXZ ; std::basic_ostream<char,std::char_traits<char> >::sentry::operator bool
	movzx	ecx, al
	test	ecx, ecx
	jne	SHORT $LN8@operator
; Line 748
	mov	edx, DWORD PTR __State$[ebp]
	or	edx, 4
	mov	DWORD PTR __State$[ebp], edx
; Line 749
	jmp	$LN9@operator
$LN8@operator:
; Line 750
	mov	DWORD PTR __$EHRec$[ebp+12], 0
; Line 751
	mov	eax, DWORD PTR __Ostr$[ebp]
	mov	ecx, DWORD PTR [eax]
	mov	edx, DWORD PTR __Ostr$[ebp]
	add	edx, DWORD PTR [ecx+4]
	mov	ecx, edx
	call	?flags@ios_base@std@@QBEHXZ		; std::ios_base::flags
	and	eax, 448				; 000001c0H
	cmp	eax, 64					; 00000040H
	je	SHORT $LN11@operator
; Line 752
	jmp	SHORT $LN4@operator
$LN2@operator:
	mov	eax, DWORD PTR __Pad$[ebp]
	sub	eax, 1
	mov	ecx, DWORD PTR __Pad$[ebp+4]
	sbb	ecx, 0
	mov	DWORD PTR __Pad$[ebp], eax
	mov	DWORD PTR __Pad$[ebp+4], ecx
$LN4@operator:
	cmp	DWORD PTR __Pad$[ebp+4], 0
	jl	SHORT $LN11@operator
	jg	SHORT $LN25@operator
	cmp	DWORD PTR __Pad$[ebp], 0
	jbe	SHORT $LN11@operator
$LN25@operator:
; Line 753
	mov	edx, DWORD PTR __Ostr$[ebp]
	mov	eax, DWORD PTR [edx]
	mov	ecx, DWORD PTR __Ostr$[ebp]
	add	ecx, DWORD PTR [eax+4]
	call	?fill@?$basic_ios@DU?$char_traits@D@std@@@std@@QBEDXZ ; std::basic_ios<char,std::char_traits<char> >::fill
	movzx	ecx, al
	push	ecx
	mov	edx, DWORD PTR __Ostr$[ebp]
	mov	eax, DWORD PTR [edx]
	mov	ecx, DWORD PTR __Ostr$[ebp]
	add	ecx, DWORD PTR [eax+4]
	call	?rdbuf@?$basic_ios@DU?$char_traits@D@std@@@std@@QBEPAV?$basic_streambuf@DU?$char_traits@D@std@@@2@XZ ; std::basic_ios<char,std::char_traits<char> >::rdbuf
	mov	ecx, eax
	call	?sputc@?$basic_streambuf@DU?$char_traits@D@std@@@std@@QAEHD@Z ; std::basic_streambuf<char,std::char_traits<char> >::sputc
	mov	DWORD PTR $T6[ebp], eax
	call	?eof@?$_Narrow_char_traits@DH@std@@SAHXZ ; std::_Narrow_char_traits<char,int>::eof
	mov	DWORD PTR $T5[ebp], eax
	lea	ecx, DWORD PTR $T6[ebp]
	push	ecx
	lea	edx, DWORD PTR $T5[ebp]
	push	edx
	call	?eq_int_type@?$_Narrow_char_traits@DH@std@@SA_NABH0@Z ; std::_Narrow_char_traits<char,int>::eq_int_type
	add	esp, 8
	movzx	eax, al
	test	eax, eax
	je	SHORT $LN12@operator
; Line 754
	mov	ecx, DWORD PTR __State$[ebp]
	or	ecx, 4
	mov	DWORD PTR __State$[ebp], ecx
; Line 755
	jmp	SHORT $LN11@operator
$LN12@operator:
; Line 757
	jmp	SHORT $LN2@operator
$LN11@operator:
; Line 760
	cmp	DWORD PTR __State$[ebp], 0
	jne	SHORT $LN13@operator
	mov	edx, DWORD PTR __Count$[ebp+4]
	push	edx
	mov	eax, DWORD PTR __Count$[ebp]
	push	eax
	mov	ecx, DWORD PTR __Val$[ebp]
	push	ecx
	mov	edx, DWORD PTR __Ostr$[ebp]
	mov	eax, DWORD PTR [edx]
	mov	ecx, DWORD PTR __Ostr$[ebp]
	add	ecx, DWORD PTR [eax+4]
	call	?rdbuf@?$basic_ios@DU?$char_traits@D@std@@@std@@QBEPAV?$basic_streambuf@DU?$char_traits@D@std@@@2@XZ ; std::basic_ios<char,std::char_traits<char> >::rdbuf
	mov	ecx, eax
	call	?sputn@?$basic_streambuf@DU?$char_traits@D@std@@@std@@QAE_JPBD_J@Z ; std::basic_streambuf<char,std::char_traits<char> >::sputn
	mov	DWORD PTR tv390[ebp], eax
	mov	DWORD PTR tv390[ebp+4], edx
	mov	ecx, DWORD PTR tv390[ebp]
	cmp	ecx, DWORD PTR __Count$[ebp]
	jne	SHORT $LN26@operator
	mov	edx, DWORD PTR tv390[ebp+4]
	cmp	edx, DWORD PTR __Count$[ebp+4]
	je	SHORT $LN13@operator
$LN26@operator:
; Line 761
	mov	eax, DWORD PTR __State$[ebp]
	or	eax, 4
	mov	DWORD PTR __State$[ebp], eax
$LN13@operator:
; Line 764
	cmp	DWORD PTR __State$[ebp], 0
	jne	SHORT $LN14@operator
; Line 765
	jmp	SHORT $LN7@operator
$LN5@operator:
	mov	ecx, DWORD PTR __Pad$[ebp]
	sub	ecx, 1
	mov	edx, DWORD PTR __Pad$[ebp+4]
	sbb	edx, 0
	mov	DWORD PTR __Pad$[ebp], ecx
	mov	DWORD PTR __Pad$[ebp+4], edx
$LN7@operator:
	cmp	DWORD PTR __Pad$[ebp+4], 0
	jl	SHORT $LN14@operator
	jg	SHORT $LN27@operator
	cmp	DWORD PTR __Pad$[ebp], 0
	jbe	SHORT $LN14@operator
$LN27@operator:
; Line 766
	mov	eax, DWORD PTR __Ostr$[ebp]
	mov	ecx, DWORD PTR [eax]
	mov	edx, DWORD PTR __Ostr$[ebp]
	add	edx, DWORD PTR [ecx+4]
	mov	ecx, edx
	call	?fill@?$basic_ios@DU?$char_traits@D@std@@@std@@QBEDXZ ; std::basic_ios<char,std::char_traits<char> >::fill
	movzx	eax, al
	push	eax
	mov	ecx, DWORD PTR __Ostr$[ebp]
	mov	edx, DWORD PTR [ecx]
	mov	ecx, DWORD PTR __Ostr$[ebp]
	add	ecx, DWORD PTR [edx+4]
	call	?rdbuf@?$basic_ios@DU?$char_traits@D@std@@@std@@QBEPAV?$basic_streambuf@DU?$char_traits@D@std@@@2@XZ ; std::basic_ios<char,std::char_traits<char> >::rdbuf
	mov	ecx, eax
	call	?sputc@?$basic_streambuf@DU?$char_traits@D@std@@@std@@QAEHD@Z ; std::basic_streambuf<char,std::char_traits<char> >::sputc
	mov	DWORD PTR $T4[ebp], eax
	call	?eof@?$_Narrow_char_traits@DH@std@@SAHXZ ; std::_Narrow_char_traits<char,int>::eof
	mov	DWORD PTR $T3[ebp], eax
	lea	eax, DWORD PTR $T4[ebp]
	push	eax
	lea	ecx, DWORD PTR $T3[ebp]
	push	ecx
	call	?eq_int_type@?$_Narrow_char_traits@DH@std@@SA_NABH0@Z ; std::_Narrow_char_traits<char,int>::eq_int_type
	add	esp, 8
	movzx	edx, al
	test	edx, edx
	je	SHORT $LN15@operator
; Line 767
	mov	eax, DWORD PTR __State$[ebp]
	or	eax, 4
	mov	DWORD PTR __State$[ebp], eax
; Line 768
	jmp	SHORT $LN14@operator
$LN15@operator:
; Line 770
	jmp	SHORT $LN5@operator
$LN14@operator:
; Line 773
	push	0
	push	0
	mov	ecx, DWORD PTR __Ostr$[ebp]
	mov	edx, DWORD PTR [ecx]
	mov	ecx, DWORD PTR __Ostr$[ebp]
	add	ecx, DWORD PTR [edx+4]
	call	?width@ios_base@std@@QAE_J_J@Z		; std::ios_base::width
	jmp	SHORT $LN19@operator
__catch$??$?6U?$char_traits@D@std@@@std@@YAAAV?$basic_ostream@DU?$char_traits@D@std@@@0@AAV10@PBD@Z$0:
; Line 774
	push	1
	push	4
	mov	eax, DWORD PTR __Ostr$[ebp]
	mov	ecx, DWORD PTR [eax]
	mov	edx, DWORD PTR __Ostr$[ebp]
	add	edx, DWORD PTR [ecx+4]
	mov	ecx, edx
	call	?setstate@?$basic_ios@DU?$char_traits@D@std@@@std@@QAEXH_N@Z ; std::basic_ios<char,std::char_traits<char> >::setstate
	mov	eax, $LN22@operator
	ret	0
$LN19@operator:
	mov	DWORD PTR __$EHRec$[ebp+12], -1
	jmp	SHORT $LN9@operator
$LN22@operator:
	mov	DWORD PTR __$EHRec$[ebp+12], -1
$LN9@operator:
; Line 777
	push	0
	mov	eax, DWORD PTR __State$[ebp]
	push	eax
	mov	ecx, DWORD PTR __Ostr$[ebp]
	mov	edx, DWORD PTR [ecx]
	mov	ecx, DWORD PTR __Ostr$[ebp]
	add	ecx, DWORD PTR [edx+4]
	call	?setstate@?$basic_ios@DU?$char_traits@D@std@@@std@@QAEXH_N@Z ; std::basic_ios<char,std::char_traits<char> >::setstate
; Line 778
	mov	eax, DWORD PTR __Ostr$[ebp]
	mov	DWORD PTR $T2[ebp], eax
	lea	ecx, DWORD PTR __Ok$[ebp]
	call	??1sentry@?$basic_ostream@DU?$char_traits@D@std@@@std@@QAE@XZ ; std::basic_ostream<char,std::char_traits<char> >::sentry::~sentry
	mov	eax, DWORD PTR $T2[ebp]
; Line 779
	mov	ecx, DWORD PTR __$EHRec$[ebp+4]
	mov	DWORD PTR fs:0, ecx
	pop	ecx
	pop	edi
	pop	esi
	pop	ebx
	mov	esp, ebp
	pop	ebp
	ret	0
_TEXT	ENDS
;	COMDAT text$x
text$x	SEGMENT
__ehhandler$??$?6U?$char_traits@D@std@@@std@@YAAAV?$basic_ostream@DU?$char_traits@D@std@@@0@AAV10@PBD@Z:
	mov	edx, DWORD PTR [esp+8]
	lea	eax, DWORD PTR [edx+12]
	mov	ecx, DWORD PTR [edx-100]
	xor	ecx, eax
	call	@__security_check_cookie@4
	mov	eax, OFFSET __ehfuncinfo$??$?6U?$char_traits@D@std@@@std@@YAAAV?$basic_ostream@DU?$char_traits@D@std@@@0@AAV10@PBD@Z
	jmp	___CxxFrameHandler3
text$x	ENDS
??$?6U?$char_traits@D@std@@@std@@YAAAV?$basic_ostream@DU?$char_traits@D@std@@@0@AAV10@PBD@Z ENDP ; std::operator<<<std::char_traits<char> >
; Function compile flags: /Odtp
;	COMDAT ?flush@?$basic_ostream@DU?$char_traits@D@std@@@std@@QAEAAV12@XZ
_TEXT	SEGMENT
__Ok$1 = -16						; size = 8
__Rdbuf$ = -8						; size = 4
_this$ = -4						; size = 4
?flush@?$basic_ostream@DU?$char_traits@D@std@@@std@@QAEAAV12@XZ PROC ; std::basic_ostream<char,std::char_traits<char> >::flush, COMDAT
; _this$ = ecx
; File C:\Program Files (x86)\Microsoft Visual Studio\2019\Preview\VC\Tools\MSVC\14.23.28008\include\ostream
; Line 549
	push	ebp
	mov	ebp, esp
	sub	esp, 16					; 00000010H
	mov	DWORD PTR _this$[ebp], ecx
; Line 550
	mov	eax, DWORD PTR _this$[ebp]
	mov	ecx, DWORD PTR [eax]
	mov	edx, DWORD PTR _this$[ebp]
	add	edx, DWORD PTR [ecx+4]
	mov	ecx, edx
	call	?rdbuf@?$basic_ios@DU?$char_traits@D@std@@@std@@QBEPAV?$basic_streambuf@DU?$char_traits@D@std@@@2@XZ ; std::basic_ios<char,std::char_traits<char> >::rdbuf
	mov	DWORD PTR __Rdbuf$[ebp], eax
; Line 551
	cmp	DWORD PTR __Rdbuf$[ebp], 0
	je	SHORT $LN2@flush
; Line 552
	mov	eax, DWORD PTR _this$[ebp]
	push	eax
	lea	ecx, DWORD PTR __Ok$1[ebp]
	call	??0sentry@?$basic_ostream@DU?$char_traits@D@std@@@std@@QAE@AAV12@@Z ; std::basic_ostream<char,std::char_traits<char> >::sentry::sentry
; Line 554
	lea	ecx, DWORD PTR __Ok$1[ebp]
	call	??Bsentry@?$basic_ostream@DU?$char_traits@D@std@@@std@@QBE_NXZ ; std::basic_ostream<char,std::char_traits<char> >::sentry::operator bool
	movzx	ecx, al
	test	ecx, ecx
	je	SHORT $LN3@flush
	mov	ecx, DWORD PTR __Rdbuf$[ebp]
	call	?pubsync@?$basic_streambuf@DU?$char_traits@D@std@@@std@@QAEHXZ ; std::basic_streambuf<char,std::char_traits<char> >::pubsync
	cmp	eax, -1
	jne	SHORT $LN3@flush
; Line 555
	push	0
	push	4
	mov	edx, DWORD PTR _this$[ebp]
	mov	eax, DWORD PTR [edx]
	mov	ecx, DWORD PTR _this$[ebp]
	add	ecx, DWORD PTR [eax+4]
	call	?setstate@?$basic_ios@DU?$char_traits@D@std@@@std@@QAEXH_N@Z ; std::basic_ios<char,std::char_traits<char> >::setstate
$LN3@flush:
; Line 557
	lea	ecx, DWORD PTR __Ok$1[ebp]
	call	??1sentry@?$basic_ostream@DU?$char_traits@D@std@@@std@@QAE@XZ ; std::basic_ostream<char,std::char_traits<char> >::sentry::~sentry
$LN2@flush:
; Line 558
	mov	eax, DWORD PTR _this$[ebp]
; Line 559
	mov	esp, ebp
	pop	ebp
	ret	0
?flush@?$basic_ostream@DU?$char_traits@D@std@@@std@@QAEAAV12@XZ ENDP ; std::basic_ostream<char,std::char_traits<char> >::flush
_TEXT	ENDS
; Function compile flags: /Odtp
;	COMDAT ?_Osfx@?$basic_ostream@DU?$char_traits@D@std@@@std@@QAEXXZ
_TEXT	SEGMENT
_this$ = -20						; size = 4
__$EHRec$ = -16						; size = 16
?_Osfx@?$basic_ostream@DU?$char_traits@D@std@@@std@@QAEXXZ PROC ; std::basic_ostream<char,std::char_traits<char> >::_Osfx, COMDAT
; _this$ = ecx
; File C:\Program Files (x86)\Microsoft Visual Studio\2019\Preview\VC\Tools\MSVC\14.23.28008\include\ostream
; Line 159
	push	ebp
	mov	ebp, esp
	push	-1
	push	__ehhandler$?_Osfx@?$basic_ostream@DU?$char_traits@D@std@@@std@@QAEXXZ
	mov	eax, DWORD PTR fs:0
	push	eax
	push	ecx
	push	ecx
	push	ebx
	push	esi
	push	edi
	mov	eax, DWORD PTR ___security_cookie
	xor	eax, ebp
	push	eax
	lea	eax, DWORD PTR __$EHRec$[ebp+4]
	mov	DWORD PTR fs:0, eax
	mov	DWORD PTR __$EHRec$[ebp], esp
	mov	DWORD PTR _this$[ebp], ecx
; Line 160
	mov	DWORD PTR __$EHRec$[ebp+12], 0
; Line 161
	mov	eax, DWORD PTR _this$[ebp]
	mov	ecx, DWORD PTR [eax]
	mov	edx, DWORD PTR _this$[ebp]
	add	edx, DWORD PTR [ecx+4]
	mov	ecx, edx
	call	?good@ios_base@std@@QBE_NXZ		; std::ios_base::good
	movzx	eax, al
	test	eax, eax
	je	SHORT $LN3@Osfx
	mov	ecx, DWORD PTR _this$[ebp]
	mov	edx, DWORD PTR [ecx]
	mov	ecx, DWORD PTR _this$[ebp]
	add	ecx, DWORD PTR [edx+4]
	call	?flags@ios_base@std@@QBEHXZ		; std::ios_base::flags
	and	eax, 2
	je	SHORT $LN3@Osfx
; Line 162
	mov	eax, DWORD PTR _this$[ebp]
	mov	ecx, DWORD PTR [eax]
	mov	edx, DWORD PTR _this$[ebp]
	add	edx, DWORD PTR [ecx+4]
	mov	ecx, edx
	call	?rdbuf@?$basic_ios@DU?$char_traits@D@std@@@std@@QBEPAV?$basic_streambuf@DU?$char_traits@D@std@@@2@XZ ; std::basic_ios<char,std::char_traits<char> >::rdbuf
	mov	ecx, eax
	call	?pubsync@?$basic_streambuf@DU?$char_traits@D@std@@@std@@QAEHXZ ; std::basic_streambuf<char,std::char_traits<char> >::pubsync
	cmp	eax, -1
	jne	SHORT $LN3@Osfx
; Line 163
	push	0
	push	4
	mov	eax, DWORD PTR _this$[ebp]
	mov	ecx, DWORD PTR [eax]
	mov	edx, DWORD PTR _this$[ebp]
	add	edx, DWORD PTR [ecx+4]
	mov	ecx, edx
	call	?setstate@?$basic_ios@DU?$char_traits@D@std@@@std@@QAEXH_N@Z ; std::basic_ios<char,std::char_traits<char> >::setstate
$LN3@Osfx:
	jmp	SHORT $LN6@Osfx
__catch$?_Osfx@?$basic_ostream@DU?$char_traits@D@std@@@std@@QAEXXZ$0:
; Line 167
	mov	eax, $LN9@Osfx
	ret	0
$LN6@Osfx:
	mov	DWORD PTR __$EHRec$[ebp+12], -1
	jmp	SHORT $LN1@Osfx
$LN9@Osfx:
	mov	DWORD PTR __$EHRec$[ebp+12], -1
$LN1@Osfx:
; Line 168
	mov	ecx, DWORD PTR __$EHRec$[ebp+4]
	mov	DWORD PTR fs:0, ecx
	pop	ecx
	pop	edi
	pop	esi
	pop	ebx
	mov	esp, ebp
	pop	ebp
	ret	0
_TEXT	ENDS
;	COMDAT text$x
text$x	SEGMENT
__ehhandler$?_Osfx@?$basic_ostream@DU?$char_traits@D@std@@@std@@QAEXXZ:
	mov	edx, DWORD PTR [esp+8]
	lea	eax, DWORD PTR [edx+12]
	mov	ecx, DWORD PTR [edx-24]
	xor	ecx, eax
	call	@__security_check_cookie@4
	mov	eax, OFFSET __ehfuncinfo$?_Osfx@?$basic_ostream@DU?$char_traits@D@std@@@std@@QAEXXZ
	jmp	___CxxFrameHandler3
text$x	ENDS
?_Osfx@?$basic_ostream@DU?$char_traits@D@std@@@std@@QAEXXZ ENDP ; std::basic_ostream<char,std::char_traits<char> >::_Osfx
; Function compile flags: /Odtp
;	COMDAT ?fill@?$basic_ios@DU?$char_traits@D@std@@@std@@QBEDXZ
_TEXT	SEGMENT
_this$ = -4						; size = 4
?fill@?$basic_ios@DU?$char_traits@D@std@@@std@@QBEDXZ PROC ; std::basic_ios<char,std::char_traits<char> >::fill, COMDAT
; _this$ = ecx
; File C:\Program Files (x86)\Microsoft Visual Studio\2019\Preview\VC\Tools\MSVC\14.23.28008\include\ios
; Line 96
	push	ebp
	mov	ebp, esp
	push	ecx
	mov	DWORD PTR _this$[ebp], ecx
; Line 97
	mov	eax, DWORD PTR _this$[ebp]
	mov	al, BYTE PTR [eax+64]
; Line 98
	mov	esp, ebp
	pop	ebp
	ret	0
?fill@?$basic_ios@DU?$char_traits@D@std@@@std@@QBEDXZ ENDP ; std::basic_ios<char,std::char_traits<char> >::fill
_TEXT	ENDS
; Function compile flags: /Odtp
;	COMDAT ?rdbuf@?$basic_ios@DU?$char_traits@D@std@@@std@@QBEPAV?$basic_streambuf@DU?$char_traits@D@std@@@2@XZ
_TEXT	SEGMENT
_this$ = -4						; size = 4
?rdbuf@?$basic_ios@DU?$char_traits@D@std@@@std@@QBEPAV?$basic_streambuf@DU?$char_traits@D@std@@@2@XZ PROC ; std::basic_ios<char,std::char_traits<char> >::rdbuf, COMDAT
; _this$ = ecx
; File C:\Program Files (x86)\Microsoft Visual Studio\2019\Preview\VC\Tools\MSVC\14.23.28008\include\ios
; Line 75
	push	ebp
	mov	ebp, esp
	push	ecx
	mov	DWORD PTR _this$[ebp], ecx
; Line 76
	mov	eax, DWORD PTR _this$[ebp]
	mov	eax, DWORD PTR [eax+56]
; Line 77
	mov	esp, ebp
	pop	ebp
	ret	0
?rdbuf@?$basic_ios@DU?$char_traits@D@std@@@std@@QBEPAV?$basic_streambuf@DU?$char_traits@D@std@@@2@XZ ENDP ; std::basic_ios<char,std::char_traits<char> >::rdbuf
_TEXT	ENDS
; Function compile flags: /Odtp
;	COMDAT ?tie@?$basic_ios@DU?$char_traits@D@std@@@std@@QBEPAV?$basic_ostream@DU?$char_traits@D@std@@@2@XZ
_TEXT	SEGMENT
_this$ = -4						; size = 4
?tie@?$basic_ios@DU?$char_traits@D@std@@@std@@QBEPAV?$basic_ostream@DU?$char_traits@D@std@@@2@XZ PROC ; std::basic_ios<char,std::char_traits<char> >::tie, COMDAT
; _this$ = ecx
; File C:\Program Files (x86)\Microsoft Visual Studio\2019\Preview\VC\Tools\MSVC\14.23.28008\include\ios
; Line 65
	push	ebp
	mov	ebp, esp
	push	ecx
	mov	DWORD PTR _this$[ebp], ecx
; Line 66
	mov	eax, DWORD PTR _this$[ebp]
	mov	eax, DWORD PTR [eax+60]
; Line 67
	mov	esp, ebp
	pop	ebp
	ret	0
?tie@?$basic_ios@DU?$char_traits@D@std@@@std@@QBEPAV?$basic_ostream@DU?$char_traits@D@std@@@2@XZ ENDP ; std::basic_ios<char,std::char_traits<char> >::tie
_TEXT	ENDS
; Function compile flags: /Odtp
;	COMDAT ?setstate@?$basic_ios@DU?$char_traits@D@std@@@std@@QAEXH_N@Z
_TEXT	SEGMENT
_this$ = -4						; size = 4
__State$ = 8						; size = 4
__Reraise$ = 12						; size = 1
?setstate@?$basic_ios@DU?$char_traits@D@std@@@std@@QAEXH_N@Z PROC ; std::basic_ios<char,std::char_traits<char> >::setstate, COMDAT
; _this$ = ecx
; File C:\Program Files (x86)\Microsoft Visual Studio\2019\Preview\VC\Tools\MSVC\14.23.28008\include\ios
; Line 48
	push	ebp
	mov	ebp, esp
	push	ecx
	mov	DWORD PTR _this$[ebp], ecx
; Line 49
	movzx	eax, BYTE PTR __Reraise$[ebp]
	push	eax
	mov	ecx, DWORD PTR _this$[ebp]
	call	?rdstate@ios_base@std@@QBEHXZ		; std::ios_base::rdstate
	or	eax, DWORD PTR __State$[ebp]
	push	eax
	mov	ecx, DWORD PTR _this$[ebp]
	call	?clear@?$basic_ios@DU?$char_traits@D@std@@@std@@QAEXH_N@Z ; std::basic_ios<char,std::char_traits<char> >::clear
; Line 50
	mov	esp, ebp
	pop	ebp
	ret	8
?setstate@?$basic_ios@DU?$char_traits@D@std@@@std@@QAEXH_N@Z ENDP ; std::basic_ios<char,std::char_traits<char> >::setstate
_TEXT	ENDS
; Function compile flags: /Odtp
;	COMDAT ?clear@?$basic_ios@DU?$char_traits@D@std@@@std@@QAEXH_N@Z
_TEXT	SEGMENT
_this$ = -8						; size = 4
tv72 = -4						; size = 4
__State$ = 8						; size = 4
__Reraise$ = 12						; size = 1
?clear@?$basic_ios@DU?$char_traits@D@std@@@std@@QAEXH_N@Z PROC ; std::basic_ios<char,std::char_traits<char> >::clear, COMDAT
; _this$ = ecx
; File C:\Program Files (x86)\Microsoft Visual Studio\2019\Preview\VC\Tools\MSVC\14.23.28008\include\ios
; Line 36
	push	ebp
	mov	ebp, esp
	sub	esp, 8
	mov	DWORD PTR _this$[ebp], ecx
; Line 38
	mov	eax, DWORD PTR _this$[ebp]
	cmp	DWORD PTR [eax+56], 0
	je	SHORT $LN3@clear
	mov	DWORD PTR tv72[ebp], 0
	jmp	SHORT $LN4@clear
$LN3@clear:
	mov	DWORD PTR tv72[ebp], 4
$LN4@clear:
	movzx	ecx, BYTE PTR __Reraise$[ebp]
	push	ecx
	mov	edx, DWORD PTR __State$[ebp]
	or	edx, DWORD PTR tv72[ebp]
	push	edx
	mov	ecx, DWORD PTR _this$[ebp]
	call	?clear@ios_base@std@@QAEXH_N@Z		; std::ios_base::clear
; Line 39
	mov	esp, ebp
	pop	ebp
	ret	8
?clear@?$basic_ios@DU?$char_traits@D@std@@@std@@QAEXH_N@Z ENDP ; std::basic_ios<char,std::char_traits<char> >::clear
_TEXT	ENDS
; Function compile flags: /Odtp
_TEXT	SEGMENT
_main	PROC
; File C:\Users\libit\source\repos\L008A\L008A\L008A.cpp
; Line 12
	push	ebp
	mov	ebp, esp
; Line 13
	push	OFFSET $SG29959
	push	OFFSET ?cout@std@@3V?$basic_ostream@DU?$char_traits@D@std@@@1@A ; std::cout
	call	??$?6U?$char_traits@D@std@@@std@@YAAAV?$basic_ostream@DU?$char_traits@D@std@@@0@AAV10@PBD@Z ; std::operator<<<std::char_traits<char> >
	add	esp, 8
; Line 14
	call	?f@@YAXXZ				; f
; Line 15
	xor	eax, eax
	pop	ebp
	ret	0
_main	ENDP
_TEXT	ENDS
; Function compile flags: /Odtp
_TEXT	SEGMENT
?f@@YAXXZ PROC						; f
; File C:\Users\libit\source\repos\L008A\L008A\L008A.cpp
; Line 7
	push	ebp
	mov	ebp, esp
; Line 9
	pop	ebp
	ret	0
?f@@YAXXZ ENDP						; f
_TEXT	ENDS
; Function compile flags: /Odtp
;	COMDAT ?width@ios_base@std@@QAE_J_J@Z
_TEXT	SEGMENT
__Oldwidth$ = -12					; size = 8
_this$ = -4						; size = 4
__Newwidth$ = 8						; size = 8
?width@ios_base@std@@QAE_J_J@Z PROC			; std::ios_base::width, COMDAT
; _this$ = ecx
; File C:\Program Files (x86)\Microsoft Visual Studio\2019\Preview\VC\Tools\MSVC\14.23.28008\include\xiosbase
; Line 366
	push	ebp
	mov	ebp, esp
	sub	esp, 12					; 0000000cH
	mov	DWORD PTR _this$[ebp], ecx
; Line 367
	mov	eax, DWORD PTR _this$[ebp]
	mov	ecx, DWORD PTR [eax+32]
	mov	DWORD PTR __Oldwidth$[ebp], ecx
	mov	edx, DWORD PTR [eax+36]
	mov	DWORD PTR __Oldwidth$[ebp+4], edx
; Line 368
	mov	eax, DWORD PTR _this$[ebp]
	mov	ecx, DWORD PTR __Newwidth$[ebp]
	mov	DWORD PTR [eax+32], ecx
	mov	edx, DWORD PTR __Newwidth$[ebp+4]
	mov	DWORD PTR [eax+36], edx
; Line 369
	mov	eax, DWORD PTR __Oldwidth$[ebp]
	mov	edx, DWORD PTR __Oldwidth$[ebp+4]
; Line 370
	mov	esp, ebp
	pop	ebp
	ret	8
?width@ios_base@std@@QAE_J_J@Z ENDP			; std::ios_base::width
_TEXT	ENDS
; Function compile flags: /Odtp
;	COMDAT ?width@ios_base@std@@QBE_JXZ
_TEXT	SEGMENT
_this$ = -4						; size = 4
?width@ios_base@std@@QBE_JXZ PROC			; std::ios_base::width, COMDAT
; _this$ = ecx
; File C:\Program Files (x86)\Microsoft Visual Studio\2019\Preview\VC\Tools\MSVC\14.23.28008\include\xiosbase
; Line 362
	push	ebp
	mov	ebp, esp
	push	ecx
	mov	DWORD PTR _this$[ebp], ecx
; Line 363
	mov	ecx, DWORD PTR _this$[ebp]
	mov	eax, DWORD PTR [ecx+32]
	mov	edx, DWORD PTR [ecx+36]
; Line 364
	mov	esp, ebp
	pop	ebp
	ret	0
?width@ios_base@std@@QBE_JXZ ENDP			; std::ios_base::width
_TEXT	ENDS
; Function compile flags: /Odtp
;	COMDAT ?flags@ios_base@std@@QBEHXZ
_TEXT	SEGMENT
_this$ = -4						; size = 4
?flags@ios_base@std@@QBEHXZ PROC			; std::ios_base::flags, COMDAT
; _this$ = ecx
; File C:\Program Files (x86)\Microsoft Visual Studio\2019\Preview\VC\Tools\MSVC\14.23.28008\include\xiosbase
; Line 325
	push	ebp
	mov	ebp, esp
	push	ecx
	mov	DWORD PTR _this$[ebp], ecx
; Line 326
	mov	eax, DWORD PTR _this$[ebp]
	mov	eax, DWORD PTR [eax+20]
; Line 327
	mov	esp, ebp
	pop	ebp
	ret	0
?flags@ios_base@std@@QBEHXZ ENDP			; std::ios_base::flags
_TEXT	ENDS
; Function compile flags: /Odtp
;	COMDAT ?good@ios_base@std@@QBE_NXZ
_TEXT	SEGMENT
_this$ = -8						; size = 4
tv67 = -4						; size = 4
?good@ios_base@std@@QBE_NXZ PROC			; std::ios_base::good, COMDAT
; _this$ = ecx
; File C:\Program Files (x86)\Microsoft Visual Studio\2019\Preview\VC\Tools\MSVC\14.23.28008\include\xiosbase
; Line 294
	push	ebp
	mov	ebp, esp
	sub	esp, 8
	mov	DWORD PTR _this$[ebp], ecx
; Line 295
	mov	ecx, DWORD PTR _this$[ebp]
	call	?rdstate@ios_base@std@@QBEHXZ		; std::ios_base::rdstate
	test	eax, eax
	jne	SHORT $LN3@good
	mov	DWORD PTR tv67[ebp], 1
	jmp	SHORT $LN4@good
$LN3@good:
	mov	DWORD PTR tv67[ebp], 0
$LN4@good:
	mov	al, BYTE PTR tv67[ebp]
; Line 296
	mov	esp, ebp
	pop	ebp
	ret	0
?good@ios_base@std@@QBE_NXZ ENDP			; std::ios_base::good
_TEXT	ENDS
; Function compile flags: /Odtp
;	COMDAT ?rdstate@ios_base@std@@QBEHXZ
_TEXT	SEGMENT
_this$ = -4						; size = 4
?rdstate@ios_base@std@@QBEHXZ PROC			; std::ios_base::rdstate, COMDAT
; _this$ = ecx
; File C:\Program Files (x86)\Microsoft Visual Studio\2019\Preview\VC\Tools\MSVC\14.23.28008\include\xiosbase
; Line 275
	push	ebp
	mov	ebp, esp
	push	ecx
	mov	DWORD PTR _this$[ebp], ecx
; Line 276
	mov	eax, DWORD PTR _this$[ebp]
	mov	eax, DWORD PTR [eax+12]
; Line 277
	mov	esp, ebp
	pop	ebp
	ret	0
?rdstate@ios_base@std@@QBEHXZ ENDP			; std::ios_base::rdstate
_TEXT	ENDS
; Function compile flags: /Odtp
;	COMDAT ?clear@ios_base@std@@QAEXH_N@Z
_TEXT	SEGMENT
$T1 = -40						; size = 20
$T2 = -20						; size = 8
_this$ = -12						; size = 4
__Msg$3 = -8						; size = 4
__Filtered$ = -4					; size = 4
__State$ = 8						; size = 4
__Reraise$ = 12						; size = 1
?clear@ios_base@std@@QAEXH_N@Z PROC			; std::ios_base::clear, COMDAT
; _this$ = ecx
; File C:\Program Files (x86)\Microsoft Visual Studio\2019\Preview\VC\Tools\MSVC\14.23.28008\include\xiosbase
; Line 243
	push	ebp
	mov	ebp, esp
	sub	esp, 40					; 00000028H
	mov	DWORD PTR _this$[ebp], ecx
; Line 244
	mov	eax, DWORD PTR __State$[ebp]
	and	eax, 23					; 00000017H
	mov	DWORD PTR __State$[ebp], eax
; Line 245
	mov	ecx, DWORD PTR _this$[ebp]
	mov	edx, DWORD PTR __State$[ebp]
	mov	DWORD PTR [ecx+12], edx
; Line 246
	mov	eax, DWORD PTR _this$[ebp]
	mov	ecx, DWORD PTR __State$[ebp]
	and	ecx, DWORD PTR [eax+16]
	mov	DWORD PTR __Filtered$[ebp], ecx
; Line 247
	je	SHORT $LN8@clear
; Line 248
	movzx	edx, BYTE PTR __Reraise$[ebp]
	test	edx, edx
	je	SHORT $LN3@clear
; Line 249
	push	0
	push	0
	call	__CxxThrowException@8
$LN3@clear:
; Line 253
	mov	eax, DWORD PTR __Filtered$[ebp]
	and	eax, 4
	je	SHORT $LN4@clear
; Line 254
	mov	DWORD PTR __Msg$3[ebp], OFFSET ??_C@_0BF@PHHKMMFD@ios_base?3?3badbit?5set@
	jmp	SHORT $LN5@clear
$LN4@clear:
; Line 255
	mov	ecx, DWORD PTR __Filtered$[ebp]
	and	ecx, 2
	je	SHORT $LN6@clear
; Line 256
	mov	DWORD PTR __Msg$3[ebp], OFFSET ??_C@_0BG@FMKFHCIL@ios_base?3?3failbit?5set@
; Line 257
	jmp	SHORT $LN5@clear
$LN6@clear:
; Line 258
	mov	DWORD PTR __Msg$3[ebp], OFFSET ??_C@_0BF@OOHOMBOF@ios_base?3?3eofbit?5set@
$LN5@clear:
; Line 261
	push	1
	lea	edx, DWORD PTR $T2[ebp]
	push	edx
	call	?make_error_code@std@@YA?AVerror_code@1@W4io_errc@1@@Z ; std::make_error_code
	add	esp, 8
	push	eax
	mov	eax, DWORD PTR __Msg$3[ebp]
	push	eax
	lea	ecx, DWORD PTR $T1[ebp]
	call	??0failure@ios_base@std@@QAE@PBDABVerror_code@2@@Z ; std::ios_base::failure::failure
	push	OFFSET __TI5?AVfailure@ios_base@std@@
	lea	ecx, DWORD PTR $T1[ebp]
	push	ecx
	call	__CxxThrowException@8
$LN8@clear:
; Line 263
	mov	esp, ebp
	pop	ebp
	ret	8
?clear@ios_base@std@@QAEXH_N@Z ENDP			; std::ios_base::clear
_TEXT	ENDS
; Function compile flags: /Odtp
;	COMDAT ??_Gfailure@ios_base@std@@UAEPAXI@Z
_TEXT	SEGMENT
_this$ = -4						; size = 4
___flags$ = 8						; size = 4
??_Gfailure@ios_base@std@@UAEPAXI@Z PROC		; std::ios_base::failure::`scalar deleting destructor', COMDAT
; _this$ = ecx
	push	ebp
	mov	ebp, esp
	push	ecx
	mov	DWORD PTR _this$[ebp], ecx
	mov	ecx, DWORD PTR _this$[ebp]
	call	??1failure@ios_base@std@@UAE@XZ
	mov	eax, DWORD PTR ___flags$[ebp]
	and	eax, 1
	je	SHORT $LN2@scalar
	push	20					; 00000014H
	mov	ecx, DWORD PTR _this$[ebp]
	push	ecx
	call	??3@YAXPAXI@Z				; operator delete
	add	esp, 8
$LN2@scalar:
	mov	eax, DWORD PTR _this$[ebp]
	mov	esp, ebp
	pop	ebp
	ret	4
??_Gfailure@ios_base@std@@UAEPAXI@Z ENDP		; std::ios_base::failure::`scalar deleting destructor'
_TEXT	ENDS
; Function compile flags: /Odtp
;	COMDAT ??0failure@ios_base@std@@QAE@ABV012@@Z
_TEXT	SEGMENT
_this$ = -4						; size = 4
___that$ = 8						; size = 4
??0failure@ios_base@std@@QAE@ABV012@@Z PROC		; std::ios_base::failure::failure, COMDAT
; _this$ = ecx
	push	ebp
	mov	ebp, esp
	push	ecx
	mov	DWORD PTR _this$[ebp], ecx
	mov	eax, DWORD PTR ___that$[ebp]
	push	eax
	mov	ecx, DWORD PTR _this$[ebp]
	call	??0system_error@std@@QAE@ABV01@@Z
	mov	ecx, DWORD PTR _this$[ebp]
	mov	DWORD PTR [ecx], OFFSET ??_7failure@ios_base@std@@6B@
	mov	eax, DWORD PTR _this$[ebp]
	mov	esp, ebp
	pop	ebp
	ret	4
??0failure@ios_base@std@@QAE@ABV012@@Z ENDP		; std::ios_base::failure::failure
_TEXT	ENDS
; Function compile flags: /Odtp
;	COMDAT ??1failure@ios_base@std@@UAE@XZ
_TEXT	SEGMENT
_this$ = -4						; size = 4
??1failure@ios_base@std@@UAE@XZ PROC			; std::ios_base::failure::~failure, COMDAT
; _this$ = ecx
	push	ebp
	mov	ebp, esp
	push	ecx
	mov	DWORD PTR _this$[ebp], ecx
	mov	ecx, DWORD PTR _this$[ebp]
	call	??1system_error@std@@UAE@XZ
	mov	esp, ebp
	pop	ebp
	ret	0
??1failure@ios_base@std@@UAE@XZ ENDP			; std::ios_base::failure::~failure
_TEXT	ENDS
; Function compile flags: /Odtp
;	COMDAT ??0failure@ios_base@std@@QAE@PBDABVerror_code@2@@Z
_TEXT	SEGMENT
_this$ = -4						; size = 4
__Message$ = 8						; size = 4
__Errcode$ = 12						; size = 4
??0failure@ios_base@std@@QAE@PBDABVerror_code@2@@Z PROC	; std::ios_base::failure::failure, COMDAT
; _this$ = ecx
; File C:\Program Files (x86)\Microsoft Visual Studio\2019\Preview\VC\Tools\MSVC\14.23.28008\include\xiosbase
; Line 201
	push	ebp
	mov	ebp, esp
	push	ecx
	mov	DWORD PTR _this$[ebp], ecx
; Line 202
	mov	eax, DWORD PTR __Message$[ebp]
	push	eax
	mov	ecx, DWORD PTR __Errcode$[ebp]
	mov	edx, DWORD PTR [ecx+4]
	push	edx
	mov	eax, DWORD PTR [ecx]
	push	eax
	mov	ecx, DWORD PTR _this$[ebp]
	call	??0system_error@std@@QAE@Verror_code@1@PBD@Z ; std::system_error::system_error
	mov	ecx, DWORD PTR _this$[ebp]
	mov	DWORD PTR [ecx], OFFSET ??_7failure@ios_base@std@@6B@
; Line 203
	mov	eax, DWORD PTR _this$[ebp]
	mov	esp, ebp
	pop	ebp
	ret	8
??0failure@ios_base@std@@QAE@PBDABVerror_code@2@@Z ENDP	; std::ios_base::failure::failure
_TEXT	ENDS
; Function compile flags: /Odtp
;	COMDAT ??$_Immortalize@V_Iostream_error_category@std@@@std@@YAAAV_Iostream_error_category@0@XZ
_TEXT	SEGMENT
??$_Immortalize@V_Iostream_error_category@std@@@std@@YAAAV_Iostream_error_category@0@XZ PROC ; std::_Immortalize<std::_Iostream_error_category>, COMDAT
; File C:\Program Files (x86)\Microsoft Visual Studio\2019\Preview\VC\Tools\MSVC\14.23.28008\include\xcall_once.h
; Line 62
	push	ebp
	mov	ebp, esp
; Line 67
	push	OFFSET ?_Storage@?1???$_Immortalize@V_Iostream_error_category@std@@@std@@YAAAV_Iostream_error_category@1@XZ@4T?$_Align_type@H$07@1@A ; `std::_Immortalize<std::_Iostream_error_category>'::`2'::_Storage
	push	OFFSET ??$_Immortalize_impl@V_Iostream_error_category@std@@@std@@YGHPAX0PAPAX@Z ; std::_Immortalize_impl<std::_Iostream_error_category>
	push	OFFSET ?_Flag@?1???$_Immortalize@V_Iostream_error_category@std@@@std@@YAAAV_Iostream_error_category@1@XZ@4PAXA ; `std::_Immortalize<std::_Iostream_error_category>'::`2'::_Flag
	call	?_Execute_once@std@@YAHAAUonce_flag@1@P6GHPAX1PAPAX@Z1@Z ; std::_Execute_once
	add	esp, 12					; 0000000cH
	test	eax, eax
	jne	SHORT $LN2@Immortaliz
; Line 69
	call	_terminate
$LN2@Immortaliz:
; Line 72
	mov	eax, OFFSET ?_Storage@?1???$_Immortalize@V_Iostream_error_category@std@@@std@@YAAAV_Iostream_error_category@1@XZ@4T?$_Align_type@H$07@1@A ; `std::_Immortalize<std::_Iostream_error_category>'::`2'::_Storage
$LN3@Immortaliz:
; Line 73
	pop	ebp
	ret	0
??$_Immortalize@V_Iostream_error_category@std@@@std@@YAAAV_Iostream_error_category@0@XZ ENDP ; std::_Immortalize<std::_Iostream_error_category>
_TEXT	ENDS
; Function compile flags: /Odtp
;	COMDAT ??_G_Iostream_error_category@std@@UAEPAXI@Z
_TEXT	SEGMENT
_this$ = -4						; size = 4
___flags$ = 8						; size = 4
??_G_Iostream_error_category@std@@UAEPAXI@Z PROC	; std::_Iostream_error_category::`scalar deleting destructor', COMDAT
; _this$ = ecx
	push	ebp
	mov	ebp, esp
	push	ecx
	mov	DWORD PTR _this$[ebp], ecx
	mov	ecx, DWORD PTR _this$[ebp]
	call	??1_Iostream_error_category@std@@UAE@XZ
	mov	eax, DWORD PTR ___flags$[ebp]
	and	eax, 1
	je	SHORT $LN2@scalar
	push	8
	mov	ecx, DWORD PTR _this$[ebp]
	push	ecx
	call	??3@YAXPAXI@Z				; operator delete
	add	esp, 8
$LN2@scalar:
	mov	eax, DWORD PTR _this$[ebp]
	mov	esp, ebp
	pop	ebp
	ret	4
??_G_Iostream_error_category@std@@UAEPAXI@Z ENDP	; std::_Iostream_error_category::`scalar deleting destructor'
_TEXT	ENDS
; Function compile flags: /Odtp
;	COMDAT ??1_Iostream_error_category@std@@UAE@XZ
_TEXT	SEGMENT
_this$ = -4						; size = 4
??1_Iostream_error_category@std@@UAE@XZ PROC		; std::_Iostream_error_category::~_Iostream_error_category, COMDAT
; _this$ = ecx
	push	ebp
	mov	ebp, esp
	push	ecx
	mov	DWORD PTR _this$[ebp], ecx
	mov	ecx, DWORD PTR _this$[ebp]
	call	??1_Generic_error_category@std@@UAE@XZ
	mov	esp, ebp
	pop	ebp
	ret	0
??1_Iostream_error_category@std@@UAE@XZ ENDP		; std::_Iostream_error_category::~_Iostream_error_category
_TEXT	ENDS
; Function compile flags: /Odtp
;	COMDAT ?message@_Iostream_error_category@std@@UBE?AV?$basic_string@DU?$char_traits@D@std@@V?$allocator@D@2@@2@H@Z
_TEXT	SEGMENT
_this$ = -4						; size = 4
___$ReturnUdt$ = 8					; size = 4
__Errcode$ = 12						; size = 4
?message@_Iostream_error_category@std@@UBE?AV?$basic_string@DU?$char_traits@D@std@@V?$allocator@D@2@@2@H@Z PROC ; std::_Iostream_error_category::message, COMDAT
; _this$ = ecx
; File C:\Program Files (x86)\Microsoft Visual Studio\2019\Preview\VC\Tools\MSVC\14.23.28008\include\system_error
; Line 432
	push	ebp
	mov	ebp, esp
	push	ecx
	mov	DWORD PTR _this$[ebp], ecx
; Line 433
	cmp	DWORD PTR __Errcode$[ebp], 1
	jne	SHORT $LN2@message
; Line 434
	push	OFFSET ??_C@_0BG@PADBLCHM@iostream?5stream?5error@
	mov	ecx, DWORD PTR ___$ReturnUdt$[ebp]
	call	??0?$basic_string@DU?$char_traits@D@std@@V?$allocator@D@2@@std@@QAE@QBD@Z ; std::basic_string<char,std::char_traits<char>,std::allocator<char> >::basic_string<char,std::char_traits<char>,std::allocator<char> >
	mov	eax, DWORD PTR ___$ReturnUdt$[ebp]
	jmp	SHORT $LN1@message
; Line 435
	jmp	SHORT $LN1@message
$LN2@message:
; Line 436
	mov	eax, DWORD PTR __Errcode$[ebp]
	push	eax
	mov	ecx, DWORD PTR ___$ReturnUdt$[ebp]
	push	ecx
	mov	ecx, DWORD PTR _this$[ebp]
	call	?message@_Generic_error_category@std@@UBE?AV?$basic_string@DU?$char_traits@D@std@@V?$allocator@D@2@@2@H@Z ; std::_Generic_error_category::message
	mov	eax, DWORD PTR ___$ReturnUdt$[ebp]
$LN1@message:
; Line 438
	mov	esp, ebp
	pop	ebp
	ret	8
?message@_Iostream_error_category@std@@UBE?AV?$basic_string@DU?$char_traits@D@std@@V?$allocator@D@2@@2@H@Z ENDP ; std::_Iostream_error_category::message
_TEXT	ENDS
; Function compile flags: /Odtp
;	COMDAT ?name@_Iostream_error_category@std@@UBEPBDXZ
_TEXT	SEGMENT
_this$ = -4						; size = 4
?name@_Iostream_error_category@std@@UBEPBDXZ PROC	; std::_Iostream_error_category::name, COMDAT
; _this$ = ecx
; File C:\Program Files (x86)\Microsoft Visual Studio\2019\Preview\VC\Tools\MSVC\14.23.28008\include\system_error
; Line 428
	push	ebp
	mov	ebp, esp
	push	ecx
	mov	DWORD PTR _this$[ebp], ecx
; Line 429
	mov	eax, OFFSET ??_C@_08LLGCOLLL@iostream@
; Line 430
	mov	esp, ebp
	pop	ebp
	ret	0
?name@_Iostream_error_category@std@@UBEPBDXZ ENDP	; std::_Iostream_error_category::name
_TEXT	ENDS
; Function compile flags: /Odtp
;	COMDAT ??0_Iostream_error_category@std@@QAE@XZ
_TEXT	SEGMENT
_this$ = -4						; size = 4
??0_Iostream_error_category@std@@QAE@XZ PROC		; std::_Iostream_error_category::_Iostream_error_category, COMDAT
; _this$ = ecx
; File C:\Program Files (x86)\Microsoft Visual Studio\2019\Preview\VC\Tools\MSVC\14.23.28008\include\system_error
; Line 424
	push	ebp
	mov	ebp, esp
	push	ecx
	mov	DWORD PTR _this$[ebp], ecx
	mov	ecx, DWORD PTR _this$[ebp]
	call	??0_Generic_error_category@std@@QAE@XZ	; std::_Generic_error_category::_Generic_error_category
	mov	eax, DWORD PTR _this$[ebp]
	mov	DWORD PTR [eax], OFFSET ??_7_Iostream_error_category@std@@6B@
; Line 425
	mov	ecx, DWORD PTR _this$[ebp]
	mov	DWORD PTR [ecx+4], 5
; Line 426
	mov	eax, DWORD PTR _this$[ebp]
	mov	esp, ebp
	pop	ebp
	ret	0
??0_Iostream_error_category@std@@QAE@XZ ENDP		; std::_Iostream_error_category::_Iostream_error_category
_TEXT	ENDS
; Function compile flags: /Odtp
;	COMDAT ??_G_Generic_error_category@std@@UAEPAXI@Z
_TEXT	SEGMENT
_this$ = -4						; size = 4
___flags$ = 8						; size = 4
??_G_Generic_error_category@std@@UAEPAXI@Z PROC		; std::_Generic_error_category::`scalar deleting destructor', COMDAT
; _this$ = ecx
	push	ebp
	mov	ebp, esp
	push	ecx
	mov	DWORD PTR _this$[ebp], ecx
	mov	ecx, DWORD PTR _this$[ebp]
	call	??1_Generic_error_category@std@@UAE@XZ
	mov	eax, DWORD PTR ___flags$[ebp]
	and	eax, 1
	je	SHORT $LN2@scalar
	push	8
	mov	ecx, DWORD PTR _this$[ebp]
	push	ecx
	call	??3@YAXPAXI@Z				; operator delete
	add	esp, 8
$LN2@scalar:
	mov	eax, DWORD PTR _this$[ebp]
	mov	esp, ebp
	pop	ebp
	ret	4
??_G_Generic_error_category@std@@UAEPAXI@Z ENDP		; std::_Generic_error_category::`scalar deleting destructor'
_TEXT	ENDS
; Function compile flags: /Odtp
;	COMDAT ??1_Generic_error_category@std@@UAE@XZ
_TEXT	SEGMENT
_this$ = -4						; size = 4
??1_Generic_error_category@std@@UAE@XZ PROC		; std::_Generic_error_category::~_Generic_error_category, COMDAT
; _this$ = ecx
	push	ebp
	mov	ebp, esp
	push	ecx
	mov	DWORD PTR _this$[ebp], ecx
	mov	ecx, DWORD PTR _this$[ebp]
	call	??1error_category@std@@UAE@XZ		; std::error_category::~error_category
	mov	esp, ebp
	pop	ebp
	ret	0
??1_Generic_error_category@std@@UAE@XZ ENDP		; std::_Generic_error_category::~_Generic_error_category
_TEXT	ENDS
; Function compile flags: /Odtp
;	COMDAT ?message@_Generic_error_category@std@@UBE?AV?$basic_string@DU?$char_traits@D@std@@V?$allocator@D@2@@2@H@Z
_TEXT	SEGMENT
_this$ = -4						; size = 4
___$ReturnUdt$ = 8					; size = 4
__Errcode$ = 12						; size = 4
?message@_Generic_error_category@std@@UBE?AV?$basic_string@DU?$char_traits@D@std@@V?$allocator@D@2@@2@H@Z PROC ; std::_Generic_error_category::message, COMDAT
; _this$ = ecx
; File C:\Program Files (x86)\Microsoft Visual Studio\2019\Preview\VC\Tools\MSVC\14.23.28008\include\system_error
; Line 416
	push	ebp
	mov	ebp, esp
	push	ecx
	mov	DWORD PTR _this$[ebp], ecx
; Line 417
	mov	eax, DWORD PTR __Errcode$[ebp]
	push	eax
	call	?_Syserror_map@std@@YAPBDH@Z		; std::_Syserror_map
	add	esp, 4
	push	eax
	mov	ecx, DWORD PTR ___$ReturnUdt$[ebp]
	call	??0?$basic_string@DU?$char_traits@D@std@@V?$allocator@D@2@@std@@QAE@QBD@Z ; std::basic_string<char,std::char_traits<char>,std::allocator<char> >::basic_string<char,std::char_traits<char>,std::allocator<char> >
	mov	eax, DWORD PTR ___$ReturnUdt$[ebp]
; Line 418
	mov	esp, ebp
	pop	ebp
	ret	8
?message@_Generic_error_category@std@@UBE?AV?$basic_string@DU?$char_traits@D@std@@V?$allocator@D@2@@2@H@Z ENDP ; std::_Generic_error_category::message
_TEXT	ENDS
; Function compile flags: /Odtp
;	COMDAT ?name@_Generic_error_category@std@@UBEPBDXZ
_TEXT	SEGMENT
_this$ = -4						; size = 4
?name@_Generic_error_category@std@@UBEPBDXZ PROC	; std::_Generic_error_category::name, COMDAT
; _this$ = ecx
; File C:\Program Files (x86)\Microsoft Visual Studio\2019\Preview\VC\Tools\MSVC\14.23.28008\include\system_error
; Line 412
	push	ebp
	mov	ebp, esp
	push	ecx
	mov	DWORD PTR _this$[ebp], ecx
; Line 413
	mov	eax, OFFSET ??_C@_07DCLBNMLN@generic@
; Line 414
	mov	esp, ebp
	pop	ebp
	ret	0
?name@_Generic_error_category@std@@UBEPBDXZ ENDP	; std::_Generic_error_category::name
_TEXT	ENDS
; Function compile flags: /Odtp
;	COMDAT ??0_Generic_error_category@std@@QAE@XZ
_TEXT	SEGMENT
_this$ = -4						; size = 4
??0_Generic_error_category@std@@QAE@XZ PROC		; std::_Generic_error_category::_Generic_error_category, COMDAT
; _this$ = ecx
; File C:\Program Files (x86)\Microsoft Visual Studio\2019\Preview\VC\Tools\MSVC\14.23.28008\include\system_error
; Line 408
	push	ebp
	mov	ebp, esp
	push	ecx
	mov	DWORD PTR _this$[ebp], ecx
	mov	ecx, DWORD PTR _this$[ebp]
	call	??0error_category@std@@QAE@XZ		; std::error_category::error_category
	mov	eax, DWORD PTR _this$[ebp]
	mov	DWORD PTR [eax], OFFSET ??_7_Generic_error_category@std@@6B@
; Line 409
	mov	ecx, DWORD PTR _this$[ebp]
	mov	DWORD PTR [ecx+4], 3
; Line 410
	mov	eax, DWORD PTR _this$[ebp]
	mov	esp, ebp
	pop	ebp
	ret	0
??0_Generic_error_category@std@@QAE@XZ ENDP		; std::_Generic_error_category::_Generic_error_category
_TEXT	ENDS
; Function compile flags: /Odtp
;	COMDAT ??_Gsystem_error@std@@UAEPAXI@Z
_TEXT	SEGMENT
_this$ = -4						; size = 4
___flags$ = 8						; size = 4
??_Gsystem_error@std@@UAEPAXI@Z PROC			; std::system_error::`scalar deleting destructor', COMDAT
; _this$ = ecx
	push	ebp
	mov	ebp, esp
	push	ecx
	mov	DWORD PTR _this$[ebp], ecx
	mov	ecx, DWORD PTR _this$[ebp]
	call	??1system_error@std@@UAE@XZ
	mov	eax, DWORD PTR ___flags$[ebp]
	and	eax, 1
	je	SHORT $LN2@scalar
	push	20					; 00000014H
	mov	ecx, DWORD PTR _this$[ebp]
	push	ecx
	call	??3@YAXPAXI@Z				; operator delete
	add	esp, 8
$LN2@scalar:
	mov	eax, DWORD PTR _this$[ebp]
	mov	esp, ebp
	pop	ebp
	ret	4
??_Gsystem_error@std@@UAEPAXI@Z ENDP			; std::system_error::`scalar deleting destructor'
_TEXT	ENDS
; Function compile flags: /Odtp
;	COMDAT ??0system_error@std@@QAE@ABV01@@Z
_TEXT	SEGMENT
_this$ = -4						; size = 4
___that$ = 8						; size = 4
??0system_error@std@@QAE@ABV01@@Z PROC			; std::system_error::system_error, COMDAT
; _this$ = ecx
	push	ebp
	mov	ebp, esp
	push	ecx
	mov	DWORD PTR _this$[ebp], ecx
	mov	eax, DWORD PTR ___that$[ebp]
	push	eax
	mov	ecx, DWORD PTR _this$[ebp]
	call	??0_System_error@std@@QAE@ABV01@@Z
	mov	ecx, DWORD PTR _this$[ebp]
	mov	DWORD PTR [ecx], OFFSET ??_7system_error@std@@6B@
	mov	eax, DWORD PTR _this$[ebp]
	mov	esp, ebp
	pop	ebp
	ret	4
??0system_error@std@@QAE@ABV01@@Z ENDP			; std::system_error::system_error
_TEXT	ENDS
; Function compile flags: /Odtp
;	COMDAT ??1system_error@std@@UAE@XZ
_TEXT	SEGMENT
_this$ = -4						; size = 4
??1system_error@std@@UAE@XZ PROC			; std::system_error::~system_error, COMDAT
; _this$ = ecx
	push	ebp
	mov	ebp, esp
	push	ecx
	mov	DWORD PTR _this$[ebp], ecx
	mov	ecx, DWORD PTR _this$[ebp]
	call	??1_System_error@std@@UAE@XZ
	mov	esp, ebp
	pop	ebp
	ret	0
??1system_error@std@@UAE@XZ ENDP			; std::system_error::~system_error
_TEXT	ENDS
; Function compile flags: /Odtp
;	COMDAT ??0system_error@std@@QAE@Verror_code@1@PBD@Z
_TEXT	SEGMENT
_this$ = -32						; size = 4
$T1 = -28						; size = 24
__$ArrayPad$ = -4					; size = 4
__Errcode$ = 8						; size = 8
__Message$ = 16						; size = 4
??0system_error@std@@QAE@Verror_code@1@PBD@Z PROC	; std::system_error::system_error, COMDAT
; _this$ = ecx
; File C:\Program Files (x86)\Microsoft Visual Studio\2019\Preview\VC\Tools\MSVC\14.23.28008\include\system_error
; Line 366
	push	ebp
	mov	ebp, esp
	sub	esp, 32					; 00000020H
	mov	eax, DWORD PTR ___security_cookie
	xor	eax, ebp
	mov	DWORD PTR __$ArrayPad$[ebp], eax
	mov	DWORD PTR _this$[ebp], ecx
; Line 367
	mov	eax, DWORD PTR __Message$[ebp]
	push	eax
	lea	ecx, DWORD PTR $T1[ebp]
	call	??0?$basic_string@DU?$char_traits@D@std@@V?$allocator@D@2@@std@@QAE@QBD@Z ; std::basic_string<char,std::char_traits<char>,std::allocator<char> >::basic_string<char,std::char_traits<char>,std::allocator<char> >
	lea	ecx, DWORD PTR $T1[ebp]
	push	ecx
	mov	edx, DWORD PTR __Errcode$[ebp+4]
	push	edx
	mov	eax, DWORD PTR __Errcode$[ebp]
	push	eax
	mov	ecx, DWORD PTR _this$[ebp]
	call	??0_System_error@std@@IAE@Verror_code@1@ABV?$basic_string@DU?$char_traits@D@std@@V?$allocator@D@2@@1@@Z ; std::_System_error::_System_error
	lea	ecx, DWORD PTR $T1[ebp]
	call	??1?$basic_string@DU?$char_traits@D@std@@V?$allocator@D@2@@std@@QAE@XZ ; std::basic_string<char,std::char_traits<char>,std::allocator<char> >::~basic_string<char,std::char_traits<char>,std::allocator<char> >
	mov	ecx, DWORD PTR _this$[ebp]
	mov	DWORD PTR [ecx], OFFSET ??_7system_error@std@@6B@
; Line 368
	mov	eax, DWORD PTR _this$[ebp]
	mov	ecx, DWORD PTR __$ArrayPad$[ebp]
	xor	ecx, ebp
	call	@__security_check_cookie@4
	mov	esp, ebp
	pop	ebp
	ret	12					; 0000000cH
??0system_error@std@@QAE@Verror_code@1@PBD@Z ENDP	; std::system_error::system_error
_TEXT	ENDS
; Function compile flags: /Odtp
;	COMDAT ??_G_System_error@std@@UAEPAXI@Z
_TEXT	SEGMENT
_this$ = -4						; size = 4
___flags$ = 8						; size = 4
??_G_System_error@std@@UAEPAXI@Z PROC			; std::_System_error::`scalar deleting destructor', COMDAT
; _this$ = ecx
	push	ebp
	mov	ebp, esp
	push	ecx
	mov	DWORD PTR _this$[ebp], ecx
	mov	ecx, DWORD PTR _this$[ebp]
	call	??1_System_error@std@@UAE@XZ
	mov	eax, DWORD PTR ___flags$[ebp]
	and	eax, 1
	je	SHORT $LN2@scalar
	push	20					; 00000014H
	mov	ecx, DWORD PTR _this$[ebp]
	push	ecx
	call	??3@YAXPAXI@Z				; operator delete
	add	esp, 8
$LN2@scalar:
	mov	eax, DWORD PTR _this$[ebp]
	mov	esp, ebp
	pop	ebp
	ret	4
??_G_System_error@std@@UAEPAXI@Z ENDP			; std::_System_error::`scalar deleting destructor'
_TEXT	ENDS
; Function compile flags: /Odtp
;	COMDAT ??0_System_error@std@@QAE@ABV01@@Z
_TEXT	SEGMENT
_this$ = -4						; size = 4
___that$ = 8						; size = 4
??0_System_error@std@@QAE@ABV01@@Z PROC			; std::_System_error::_System_error, COMDAT
; _this$ = ecx
	push	ebp
	mov	ebp, esp
	push	ecx
	mov	DWORD PTR _this$[ebp], ecx
	mov	eax, DWORD PTR ___that$[ebp]
	push	eax
	mov	ecx, DWORD PTR _this$[ebp]
	call	??0runtime_error@std@@QAE@ABV01@@Z
	mov	ecx, DWORD PTR _this$[ebp]
	mov	DWORD PTR [ecx], OFFSET ??_7_System_error@std@@6B@
	mov	edx, DWORD PTR ___that$[ebp]
	mov	eax, DWORD PTR [edx+12]
	mov	ecx, DWORD PTR [edx+16]
	mov	edx, DWORD PTR _this$[ebp]
	mov	DWORD PTR [edx+12], eax
	mov	DWORD PTR [edx+16], ecx
	mov	eax, DWORD PTR _this$[ebp]
	mov	esp, ebp
	pop	ebp
	ret	4
??0_System_error@std@@QAE@ABV01@@Z ENDP			; std::_System_error::_System_error
_TEXT	ENDS
; Function compile flags: /Odtp
;	COMDAT ??1_System_error@std@@UAE@XZ
_TEXT	SEGMENT
_this$ = -4						; size = 4
??1_System_error@std@@UAE@XZ PROC			; std::_System_error::~_System_error, COMDAT
; _this$ = ecx
	push	ebp
	mov	ebp, esp
	push	ecx
	mov	DWORD PTR _this$[ebp], ecx
	mov	ecx, DWORD PTR _this$[ebp]
	call	??1runtime_error@std@@UAE@XZ
	mov	esp, ebp
	pop	ebp
	ret	0
??1_System_error@std@@UAE@XZ ENDP			; std::_System_error::~_System_error
_TEXT	ENDS
; Function compile flags: /Odtp
;	COMDAT ??0_System_error@std@@IAE@Verror_code@1@ABV?$basic_string@DU?$char_traits@D@std@@V?$allocator@D@2@@1@@Z
_TEXT	SEGMENT
_this$ = -32						; size = 4
$T1 = -28						; size = 24
__$ArrayPad$ = -4					; size = 4
__Errcode$ = 8						; size = 8
__Message$ = 16						; size = 4
??0_System_error@std@@IAE@Verror_code@1@ABV?$basic_string@DU?$char_traits@D@std@@V?$allocator@D@2@@1@@Z PROC ; std::_System_error::_System_error, COMDAT
; _this$ = ecx
; File C:\Program Files (x86)\Microsoft Visual Studio\2019\Preview\VC\Tools\MSVC\14.23.28008\include\system_error
; Line 348
	push	ebp
	mov	ebp, esp
	sub	esp, 32					; 00000020H
	mov	eax, DWORD PTR ___security_cookie
	xor	eax, ebp
	mov	DWORD PTR __$ArrayPad$[ebp], eax
	mov	DWORD PTR _this$[ebp], ecx
; Line 347
	sub	esp, 24					; 00000018H
	mov	ecx, esp
	mov	eax, DWORD PTR __Message$[ebp]
	push	eax
	call	??0?$basic_string@DU?$char_traits@D@std@@V?$allocator@D@2@@std@@QAE@ABV01@@Z ; std::basic_string<char,std::char_traits<char>,std::allocator<char> >::basic_string<char,std::char_traits<char>,std::allocator<char> >
	mov	ecx, DWORD PTR __Errcode$[ebp+4]
	push	ecx
	mov	edx, DWORD PTR __Errcode$[ebp]
	push	edx
	lea	eax, DWORD PTR $T1[ebp]
	push	eax
	call	?_Makestr@_System_error@std@@CA?AV?$basic_string@DU?$char_traits@D@std@@V?$allocator@D@2@@2@Verror_code@2@V32@@Z ; std::_System_error::_Makestr
	add	esp, 36					; 00000024H
	push	eax
	mov	ecx, DWORD PTR _this$[ebp]
	call	??0runtime_error@std@@QAE@ABV?$basic_string@DU?$char_traits@D@std@@V?$allocator@D@2@@1@@Z ; std::runtime_error::runtime_error
	lea	ecx, DWORD PTR $T1[ebp]
	call	??1?$basic_string@DU?$char_traits@D@std@@V?$allocator@D@2@@std@@QAE@XZ ; std::basic_string<char,std::char_traits<char>,std::allocator<char> >::~basic_string<char,std::char_traits<char>,std::allocator<char> >
; Line 348
	mov	ecx, DWORD PTR _this$[ebp]
	mov	DWORD PTR [ecx], OFFSET ??_7_System_error@std@@6B@
	mov	edx, DWORD PTR _this$[ebp]
	mov	eax, DWORD PTR __Errcode$[ebp]
	mov	DWORD PTR [edx+12], eax
	mov	ecx, DWORD PTR __Errcode$[ebp+4]
	mov	DWORD PTR [edx+16], ecx
; Line 349
	mov	eax, DWORD PTR _this$[ebp]
	mov	ecx, DWORD PTR __$ArrayPad$[ebp]
	xor	ecx, ebp
	call	@__security_check_cookie@4
	mov	esp, ebp
	pop	ebp
	ret	12					; 0000000cH
??0_System_error@std@@IAE@Verror_code@1@ABV?$basic_string@DU?$char_traits@D@std@@V?$allocator@D@2@@1@@Z ENDP ; std::_System_error::_System_error
_TEXT	ENDS
; Function compile flags: /Odtp
;	COMDAT ?_Makestr@_System_error@std@@CA?AV?$basic_string@DU?$char_traits@D@std@@V?$allocator@D@2@@2@Verror_code@2@V32@@Z
_TEXT	SEGMENT
$T1 = -28						; size = 24
__$ArrayPad$ = -4					; size = 4
___$ReturnUdt$ = 8					; size = 4
__Errcode$ = 12						; size = 8
__Message$ = 20						; size = 24
?_Makestr@_System_error@std@@CA?AV?$basic_string@DU?$char_traits@D@std@@V?$allocator@D@2@@2@Verror_code@2@V32@@Z PROC ; std::_System_error::_Makestr, COMDAT
; File C:\Program Files (x86)\Microsoft Visual Studio\2019\Preview\VC\Tools\MSVC\14.23.28008\include\system_error
; Line 336
	push	ebp
	mov	ebp, esp
	sub	esp, 28					; 0000001cH
	mov	eax, DWORD PTR ___security_cookie
	xor	eax, ebp
	mov	DWORD PTR __$ArrayPad$[ebp], eax
; Line 337
	lea	ecx, DWORD PTR __Message$[ebp]
	call	?empty@?$basic_string@DU?$char_traits@D@std@@V?$allocator@D@2@@std@@QBE_NXZ ; std::basic_string<char,std::char_traits<char>,std::allocator<char> >::empty
	movzx	eax, al
	test	eax, eax
	jne	SHORT $LN2@Makestr
; Line 338
	push	OFFSET ??_C@_02LMMGGCAJ@?3?5@
	lea	ecx, DWORD PTR __Message$[ebp]
	call	?append@?$basic_string@DU?$char_traits@D@std@@V?$allocator@D@2@@std@@QAEAAV12@QBD@Z ; std::basic_string<char,std::char_traits<char>,std::allocator<char> >::append
$LN2@Makestr:
; Line 341
	lea	ecx, DWORD PTR $T1[ebp]
	push	ecx
	lea	ecx, DWORD PTR __Errcode$[ebp]
	call	?message@error_code@std@@QBE?AV?$basic_string@DU?$char_traits@D@std@@V?$allocator@D@2@@2@XZ ; std::error_code::message
	push	eax
	lea	ecx, DWORD PTR __Message$[ebp]
	call	?append@?$basic_string@DU?$char_traits@D@std@@V?$allocator@D@2@@std@@QAEAAV12@ABV12@@Z ; std::basic_string<char,std::char_traits<char>,std::allocator<char> >::append
	lea	ecx, DWORD PTR $T1[ebp]
	call	??1?$basic_string@DU?$char_traits@D@std@@V?$allocator@D@2@@std@@QAE@XZ ; std::basic_string<char,std::char_traits<char>,std::allocator<char> >::~basic_string<char,std::char_traits<char>,std::allocator<char> >
; Line 342
	lea	edx, DWORD PTR __Message$[ebp]
	push	edx
	mov	ecx, DWORD PTR ___$ReturnUdt$[ebp]
	call	??0?$basic_string@DU?$char_traits@D@std@@V?$allocator@D@2@@std@@QAE@$$QAV01@@Z ; std::basic_string<char,std::char_traits<char>,std::allocator<char> >::basic_string<char,std::char_traits<char>,std::allocator<char> >
	lea	ecx, DWORD PTR __Message$[ebp]
	call	??1?$basic_string@DU?$char_traits@D@std@@V?$allocator@D@2@@std@@QAE@XZ ; std::basic_string<char,std::char_traits<char>,std::allocator<char> >::~basic_string<char,std::char_traits<char>,std::allocator<char> >
	mov	eax, DWORD PTR ___$ReturnUdt$[ebp]
; Line 343
	mov	ecx, DWORD PTR __$ArrayPad$[ebp]
	xor	ecx, ebp
	call	@__security_check_cookie@4
	mov	esp, ebp
	pop	ebp
	ret	0
?_Makestr@_System_error@std@@CA?AV?$basic_string@DU?$char_traits@D@std@@V?$allocator@D@2@@2@Verror_code@2@V32@@Z ENDP ; std::_System_error::_Makestr
_TEXT	ENDS
; Function compile flags: /Odtp
;	COMDAT ??8std@@YA_NABVerror_condition@0@0@Z
_TEXT	SEGMENT
tv78 = -4						; size = 4
__Left$ = 8						; size = 4
__Right$ = 12						; size = 4
??8std@@YA_NABVerror_condition@0@0@Z PROC		; std::operator==, COMDAT
; File C:\Program Files (x86)\Microsoft Visual Studio\2019\Preview\VC\Tools\MSVC\14.23.28008\include\system_error
; Line 233
	push	ebp
	mov	ebp, esp
	push	ecx
	push	esi
; Line 234
	mov	ecx, DWORD PTR __Right$[ebp]
	call	?category@error_condition@std@@QBEABVerror_category@2@XZ ; std::error_condition::category
	push	eax
	mov	ecx, DWORD PTR __Left$[ebp]
	call	?category@error_condition@std@@QBEABVerror_category@2@XZ ; std::error_condition::category
	mov	ecx, eax
	call	??8error_category@std@@QBE_NABV01@@Z	; std::error_category::operator==
	movzx	eax, al
	test	eax, eax
	je	SHORT $LN3@operator
	mov	ecx, DWORD PTR __Left$[ebp]
	call	?value@error_condition@std@@QBEHXZ	; std::error_condition::value
	mov	esi, eax
	mov	ecx, DWORD PTR __Right$[ebp]
	call	?value@error_condition@std@@QBEHXZ	; std::error_condition::value
	cmp	esi, eax
	jne	SHORT $LN3@operator
	mov	DWORD PTR tv78[ebp], 1
	jmp	SHORT $LN4@operator
$LN3@operator:
	mov	DWORD PTR tv78[ebp], 0
$LN4@operator:
	mov	al, BYTE PTR tv78[ebp]
; Line 235
	pop	esi
	mov	esp, ebp
	pop	ebp
	ret	0
??8std@@YA_NABVerror_condition@0@0@Z ENDP		; std::operator==
_TEXT	ENDS
; Function compile flags: /Odtp
;	COMDAT ?category@error_condition@std@@QBEABVerror_category@2@XZ
_TEXT	SEGMENT
_this$ = -4						; size = 4
?category@error_condition@std@@QBEABVerror_category@2@XZ PROC ; std::error_condition::category, COMDAT
; _this$ = ecx
; File C:\Program Files (x86)\Microsoft Visual Studio\2019\Preview\VC\Tools\MSVC\14.23.28008\include\system_error
; Line 199
	push	ebp
	mov	ebp, esp
	push	ecx
	mov	DWORD PTR _this$[ebp], ecx
; Line 200
	mov	eax, DWORD PTR _this$[ebp]
	mov	eax, DWORD PTR [eax+4]
; Line 201
	mov	esp, ebp
	pop	ebp
	ret	0
?category@error_condition@std@@QBEABVerror_category@2@XZ ENDP ; std::error_condition::category
_TEXT	ENDS
; Function compile flags: /Odtp
;	COMDAT ?value@error_condition@std@@QBEHXZ
_TEXT	SEGMENT
_this$ = -4						; size = 4
?value@error_condition@std@@QBEHXZ PROC			; std::error_condition::value, COMDAT
; _this$ = ecx
; File C:\Program Files (x86)\Microsoft Visual Studio\2019\Preview\VC\Tools\MSVC\14.23.28008\include\system_error
; Line 195
	push	ebp
	mov	ebp, esp
	push	ecx
	mov	DWORD PTR _this$[ebp], ecx
; Line 196
	mov	eax, DWORD PTR _this$[ebp]
	mov	eax, DWORD PTR [eax]
; Line 197
	mov	esp, ebp
	pop	ebp
	ret	0
?value@error_condition@std@@QBEHXZ ENDP			; std::error_condition::value
_TEXT	ENDS
; Function compile flags: /Odtp
;	COMDAT ??0error_condition@std@@QAE@HABVerror_category@1@@Z
_TEXT	SEGMENT
_this$ = -4						; size = 4
__Val$ = 8						; size = 4
__Cat$ = 12						; size = 4
??0error_condition@std@@QAE@HABVerror_category@1@@Z PROC ; std::error_condition::error_condition, COMDAT
; _this$ = ecx
; File C:\Program Files (x86)\Microsoft Visual Studio\2019\Preview\VC\Tools\MSVC\14.23.28008\include\system_error
; Line 169
	push	ebp
	mov	ebp, esp
	push	ecx
	mov	DWORD PTR _this$[ebp], ecx
; Line 170
	mov	eax, DWORD PTR _this$[ebp]
	mov	ecx, DWORD PTR __Val$[ebp]
	mov	DWORD PTR [eax], ecx
	mov	edx, DWORD PTR _this$[ebp]
	mov	eax, DWORD PTR __Cat$[ebp]
	mov	DWORD PTR [edx+4], eax
; Line 171
	mov	eax, DWORD PTR _this$[ebp]
	mov	esp, ebp
	pop	ebp
	ret	8
??0error_condition@std@@QAE@HABVerror_category@1@@Z ENDP ; std::error_condition::error_condition
_TEXT	ENDS
; Function compile flags: /Odtp
;	COMDAT ?message@error_code@std@@QBE?AV?$basic_string@DU?$char_traits@D@std@@V?$allocator@D@2@@2@XZ
_TEXT	SEGMENT
tv67 = -8						; size = 4
_this$ = -4						; size = 4
___$ReturnUdt$ = 8					; size = 4
?message@error_code@std@@QBE?AV?$basic_string@DU?$char_traits@D@std@@V?$allocator@D@2@@2@XZ PROC ; std::error_code::message, COMDAT
; _this$ = ecx
; File C:\Program Files (x86)\Microsoft Visual Studio\2019\Preview\VC\Tools\MSVC\14.23.28008\include\system_error
; Line 150
	push	ebp
	mov	ebp, esp
	sub	esp, 8
	mov	DWORD PTR _this$[ebp], ecx
; Line 151
	mov	ecx, DWORD PTR _this$[ebp]
	call	?category@error_code@std@@QBEABVerror_category@2@XZ ; std::error_code::category
	mov	DWORD PTR tv67[ebp], eax
	mov	ecx, DWORD PTR _this$[ebp]
	call	?value@error_code@std@@QBEHXZ		; std::error_code::value
	push	eax
	mov	eax, DWORD PTR ___$ReturnUdt$[ebp]
	push	eax
	mov	ecx, DWORD PTR tv67[ebp]
	mov	edx, DWORD PTR [ecx]
	mov	ecx, DWORD PTR tv67[ebp]
	mov	eax, DWORD PTR [edx+8]
	call	eax
	mov	eax, DWORD PTR ___$ReturnUdt$[ebp]
; Line 152
	mov	esp, ebp
	pop	ebp
	ret	4
?message@error_code@std@@QBE?AV?$basic_string@DU?$char_traits@D@std@@V?$allocator@D@2@@2@XZ ENDP ; std::error_code::message
_TEXT	ENDS
; Function compile flags: /Odtp
;	COMDAT ?category@error_code@std@@QBEABVerror_category@2@XZ
_TEXT	SEGMENT
_this$ = -4						; size = 4
?category@error_code@std@@QBEABVerror_category@2@XZ PROC ; std::error_code::category, COMDAT
; _this$ = ecx
; File C:\Program Files (x86)\Microsoft Visual Studio\2019\Preview\VC\Tools\MSVC\14.23.28008\include\system_error
; Line 144
	push	ebp
	mov	ebp, esp
	push	ecx
	mov	DWORD PTR _this$[ebp], ecx
; Line 145
	mov	eax, DWORD PTR _this$[ebp]
	mov	eax, DWORD PTR [eax+4]
; Line 146
	mov	esp, ebp
	pop	ebp
	ret	0
?category@error_code@std@@QBEABVerror_category@2@XZ ENDP ; std::error_code::category
_TEXT	ENDS
; Function compile flags: /Odtp
;	COMDAT ?value@error_code@std@@QBEHXZ
_TEXT	SEGMENT
_this$ = -4						; size = 4
?value@error_code@std@@QBEHXZ PROC			; std::error_code::value, COMDAT
; _this$ = ecx
; File C:\Program Files (x86)\Microsoft Visual Studio\2019\Preview\VC\Tools\MSVC\14.23.28008\include\system_error
; Line 140
	push	ebp
	mov	ebp, esp
	push	ecx
	mov	DWORD PTR _this$[ebp], ecx
; Line 141
	mov	eax, DWORD PTR _this$[ebp]
	mov	eax, DWORD PTR [eax]
; Line 142
	mov	esp, ebp
	pop	ebp
	ret	0
?value@error_code@std@@QBEHXZ ENDP			; std::error_code::value
_TEXT	ENDS
; Function compile flags: /Odtp
;	COMDAT ??0error_code@std@@QAE@HABVerror_category@1@@Z
_TEXT	SEGMENT
_this$ = -4						; size = 4
__Val$ = 8						; size = 4
__Cat$ = 12						; size = 4
??0error_code@std@@QAE@HABVerror_category@1@@Z PROC	; std::error_code::error_code, COMDAT
; _this$ = ecx
; File C:\Program Files (x86)\Microsoft Visual Studio\2019\Preview\VC\Tools\MSVC\14.23.28008\include\system_error
; Line 114
	push	ebp
	mov	ebp, esp
	push	ecx
	mov	DWORD PTR _this$[ebp], ecx
; Line 115
	mov	eax, DWORD PTR _this$[ebp]
	mov	ecx, DWORD PTR __Val$[ebp]
	mov	DWORD PTR [eax], ecx
	mov	edx, DWORD PTR _this$[ebp]
	mov	eax, DWORD PTR __Cat$[ebp]
	mov	DWORD PTR [edx+4], eax
; Line 116
	mov	eax, DWORD PTR _this$[ebp]
	mov	esp, ebp
	pop	ebp
	ret	8
??0error_code@std@@QAE@HABVerror_category@1@@Z ENDP	; std::error_code::error_code
_TEXT	ENDS
; Function compile flags: /Odtp
;	COMDAT ??8error_category@std@@QBE_NABV01@@Z
_TEXT	SEGMENT
_this$ = -8						; size = 4
tv67 = -4						; size = 4
__Right$ = 8						; size = 4
??8error_category@std@@QBE_NABV01@@Z PROC		; std::error_category::operator==, COMDAT
; _this$ = ecx
; File C:\Program Files (x86)\Microsoft Visual Studio\2019\Preview\VC\Tools\MSVC\14.23.28008\include\system_error
; Line 82
	push	ebp
	mov	ebp, esp
	sub	esp, 8
	mov	DWORD PTR _this$[ebp], ecx
; Line 83
	mov	eax, DWORD PTR _this$[ebp]
	mov	ecx, DWORD PTR __Right$[ebp]
	mov	edx, DWORD PTR [eax+4]
	cmp	edx, DWORD PTR [ecx+4]
	jne	SHORT $LN3@operator
	mov	DWORD PTR tv67[ebp], 1
	jmp	SHORT $LN4@operator
$LN3@operator:
	mov	DWORD PTR tv67[ebp], 0
$LN4@operator:
	mov	al, BYTE PTR tv67[ebp]
; Line 84
	mov	esp, ebp
	pop	ebp
	ret	4
??8error_category@std@@QBE_NABV01@@Z ENDP		; std::error_category::operator==
_TEXT	ENDS
; Function compile flags: /Odtp
;	COMDAT ?equivalent@error_category@std@@UBE_NABVerror_code@2@H@Z
_TEXT	SEGMENT
_this$ = -8						; size = 4
tv74 = -4						; size = 4
__Code$ = 8						; size = 4
__Errval$ = 12						; size = 4
?equivalent@error_category@std@@UBE_NABVerror_code@2@H@Z PROC ; std::error_category::equivalent, COMDAT
; _this$ = ecx
; File C:\Program Files (x86)\Microsoft Visual Studio\2019\Preview\VC\Tools\MSVC\14.23.28008\include\system_error
; Line 282
	push	ebp
	mov	ebp, esp
	sub	esp, 8
	mov	DWORD PTR _this$[ebp], ecx
; Line 283
	mov	ecx, DWORD PTR __Code$[ebp]
	call	?category@error_code@std@@QBEABVerror_category@2@XZ ; std::error_code::category
	push	eax
	mov	ecx, DWORD PTR _this$[ebp]
	call	??8error_category@std@@QBE_NABV01@@Z	; std::error_category::operator==
	movzx	eax, al
	test	eax, eax
	je	SHORT $LN3@equivalent
	mov	ecx, DWORD PTR __Code$[ebp]
	call	?value@error_code@std@@QBEHXZ		; std::error_code::value
	cmp	eax, DWORD PTR __Errval$[ebp]
	jne	SHORT $LN3@equivalent
	mov	DWORD PTR tv74[ebp], 1
	jmp	SHORT $LN4@equivalent
$LN3@equivalent:
	mov	DWORD PTR tv74[ebp], 0
$LN4@equivalent:
	mov	al, BYTE PTR tv74[ebp]
; Line 284
	mov	esp, ebp
	pop	ebp
	ret	8
?equivalent@error_category@std@@UBE_NABVerror_code@2@H@Z ENDP ; std::error_category::equivalent
_TEXT	ENDS
; Function compile flags: /Odtp
;	COMDAT ?equivalent@error_category@std@@UBE_NHABVerror_condition@2@@Z
_TEXT	SEGMENT
$T1 = -12						; size = 8
_this$ = -4						; size = 4
__Errval$ = 8						; size = 4
__Cond$ = 12						; size = 4
?equivalent@error_category@std@@UBE_NHABVerror_condition@2@@Z PROC ; std::error_category::equivalent, COMDAT
; _this$ = ecx
; File C:\Program Files (x86)\Microsoft Visual Studio\2019\Preview\VC\Tools\MSVC\14.23.28008\include\system_error
; Line 277
	push	ebp
	mov	ebp, esp
	sub	esp, 12					; 0000000cH
	mov	DWORD PTR _this$[ebp], ecx
; Line 278
	mov	eax, DWORD PTR __Cond$[ebp]
	push	eax
	mov	ecx, DWORD PTR __Errval$[ebp]
	push	ecx
	lea	edx, DWORD PTR $T1[ebp]
	push	edx
	mov	eax, DWORD PTR _this$[ebp]
	mov	edx, DWORD PTR [eax]
	mov	ecx, DWORD PTR _this$[ebp]
	mov	eax, DWORD PTR [edx+12]
	call	eax
	push	eax
	call	??8std@@YA_NABVerror_condition@0@0@Z	; std::operator==
	add	esp, 8
; Line 279
	mov	esp, ebp
	pop	ebp
	ret	8
?equivalent@error_category@std@@UBE_NHABVerror_condition@2@@Z ENDP ; std::error_category::equivalent
_TEXT	ENDS
; Function compile flags: /Odtp
;	COMDAT ?default_error_condition@error_category@std@@UBE?AVerror_condition@2@H@Z
_TEXT	SEGMENT
_this$ = -4						; size = 4
___$ReturnUdt$ = 8					; size = 4
__Errval$ = 12						; size = 4
?default_error_condition@error_category@std@@UBE?AVerror_condition@2@H@Z PROC ; std::error_category::default_error_condition, COMDAT
; _this$ = ecx
; File C:\Program Files (x86)\Microsoft Visual Studio\2019\Preview\VC\Tools\MSVC\14.23.28008\include\system_error
; Line 272
	push	ebp
	mov	ebp, esp
	push	ecx
	mov	DWORD PTR _this$[ebp], ecx
; Line 273
	mov	eax, DWORD PTR _this$[ebp]
	push	eax
	mov	ecx, DWORD PTR __Errval$[ebp]
	push	ecx
	mov	ecx, DWORD PTR ___$ReturnUdt$[ebp]
	call	??0error_condition@std@@QAE@HABVerror_category@1@@Z ; std::error_condition::error_condition
	mov	eax, DWORD PTR ___$ReturnUdt$[ebp]
; Line 274
	mov	esp, ebp
	pop	ebp
	ret	8
?default_error_condition@error_category@std@@UBE?AVerror_condition@2@H@Z ENDP ; std::error_category::default_error_condition
_TEXT	ENDS
; Function compile flags: /Odtp
;	COMDAT ??1error_category@std@@UAE@XZ
_TEXT	SEGMENT
_this$ = -4						; size = 4
??1error_category@std@@UAE@XZ PROC			; std::error_category::~error_category, COMDAT
; _this$ = ecx
; File C:\Program Files (x86)\Microsoft Visual Studio\2019\Preview\VC\Tools\MSVC\14.23.28008\include\system_error
; Line 70
	push	ebp
	mov	ebp, esp
	push	ecx
	mov	DWORD PTR _this$[ebp], ecx
	mov	esp, ebp
	pop	ebp
	ret	0
??1error_category@std@@UAE@XZ ENDP			; std::error_category::~error_category
_TEXT	ENDS
; Function compile flags: /Odtp
;	COMDAT ??0error_category@std@@QAE@XZ
_TEXT	SEGMENT
_this$ = -4						; size = 4
??0error_category@std@@QAE@XZ PROC			; std::error_category::error_category, COMDAT
; _this$ = ecx
; File C:\Program Files (x86)\Microsoft Visual Studio\2019\Preview\VC\Tools\MSVC\14.23.28008\include\system_error
; Line 66
	push	ebp
	mov	ebp, esp
	push	ecx
	mov	DWORD PTR _this$[ebp], ecx
; Line 67
	mov	eax, DWORD PTR _this$[ebp]
	mov	ecx, DWORD PTR _this$[ebp]
	mov	DWORD PTR [eax+4], ecx
; Line 68
	mov	eax, DWORD PTR _this$[ebp]
	mov	esp, ebp
	pop	ebp
	ret	0
??0error_category@std@@QAE@XZ ENDP			; std::error_category::error_category
_TEXT	ENDS
; Function compile flags: /Odtp
;	COMDAT ?iostream_category@std@@YAABVerror_category@1@XZ
_TEXT	SEGMENT
?iostream_category@std@@YAABVerror_category@1@XZ PROC	; std::iostream_category, COMDAT
; File C:\Program Files (x86)\Microsoft Visual Studio\2019\Preview\VC\Tools\MSVC\14.23.28008\include\system_error
; Line 482
	push	ebp
	mov	ebp, esp
; Line 483
	call	??$_Immortalize@V_Iostream_error_category@std@@@std@@YAAAV_Iostream_error_category@0@XZ ; std::_Immortalize<std::_Iostream_error_category>
; Line 484
	pop	ebp
	ret	0
?iostream_category@std@@YAABVerror_category@1@XZ ENDP	; std::iostream_category
_TEXT	ENDS
; Function compile flags: /Odtp
;	COMDAT ?make_error_code@std@@YA?AVerror_code@1@W4io_errc@1@@Z
_TEXT	SEGMENT
___$ReturnUdt$ = 8					; size = 4
__Errno$ = 12						; size = 4
?make_error_code@std@@YA?AVerror_code@1@W4io_errc@1@@Z PROC ; std::make_error_code, COMDAT
; File C:\Program Files (x86)\Microsoft Visual Studio\2019\Preview\VC\Tools\MSVC\14.23.28008\include\system_error
; Line 297
	push	ebp
	mov	ebp, esp
; Line 298
	call	?iostream_category@std@@YAABVerror_category@1@XZ ; std::iostream_category
	push	eax
	mov	eax, DWORD PTR __Errno$[ebp]
	push	eax
	mov	ecx, DWORD PTR ___$ReturnUdt$[ebp]
	call	??0error_code@std@@QAE@HABVerror_category@1@@Z ; std::error_code::error_code
	mov	eax, DWORD PTR ___$ReturnUdt$[ebp]
; Line 299
	pop	ebp
	ret	0
?make_error_code@std@@YA?AVerror_code@1@W4io_errc@1@@Z ENDP ; std::make_error_code
_TEXT	ENDS
; Function compile flags: /Odtp
;	COMDAT ??_Gruntime_error@std@@UAEPAXI@Z
_TEXT	SEGMENT
_this$ = -4						; size = 4
___flags$ = 8						; size = 4
??_Gruntime_error@std@@UAEPAXI@Z PROC			; std::runtime_error::`scalar deleting destructor', COMDAT
; _this$ = ecx
	push	ebp
	mov	ebp, esp
	push	ecx
	mov	DWORD PTR _this$[ebp], ecx
	mov	ecx, DWORD PTR _this$[ebp]
	call	??1runtime_error@std@@UAE@XZ
	mov	eax, DWORD PTR ___flags$[ebp]
	and	eax, 1
	je	SHORT $LN2@scalar
	push	12					; 0000000cH
	mov	ecx, DWORD PTR _this$[ebp]
	push	ecx
	call	??3@YAXPAXI@Z				; operator delete
	add	esp, 8
$LN2@scalar:
	mov	eax, DWORD PTR _this$[ebp]
	mov	esp, ebp
	pop	ebp
	ret	4
??_Gruntime_error@std@@UAEPAXI@Z ENDP			; std::runtime_error::`scalar deleting destructor'
_TEXT	ENDS
; Function compile flags: /Odtp
;	COMDAT ??0runtime_error@std@@QAE@ABV01@@Z
_TEXT	SEGMENT
_this$ = -4						; size = 4
___that$ = 8						; size = 4
??0runtime_error@std@@QAE@ABV01@@Z PROC			; std::runtime_error::runtime_error, COMDAT
; _this$ = ecx
	push	ebp
	mov	ebp, esp
	push	ecx
	mov	DWORD PTR _this$[ebp], ecx
	mov	eax, DWORD PTR ___that$[ebp]
	push	eax
	mov	ecx, DWORD PTR _this$[ebp]
	call	??0exception@std@@QAE@ABV01@@Z		; std::exception::exception
	mov	ecx, DWORD PTR _this$[ebp]
	mov	DWORD PTR [ecx], OFFSET ??_7runtime_error@std@@6B@
	mov	eax, DWORD PTR _this$[ebp]
	mov	esp, ebp
	pop	ebp
	ret	4
??0runtime_error@std@@QAE@ABV01@@Z ENDP			; std::runtime_error::runtime_error
_TEXT	ENDS
; Function compile flags: /Odtp
;	COMDAT ??1runtime_error@std@@UAE@XZ
_TEXT	SEGMENT
_this$ = -4						; size = 4
??1runtime_error@std@@UAE@XZ PROC			; std::runtime_error::~runtime_error, COMDAT
; _this$ = ecx
	push	ebp
	mov	ebp, esp
	push	ecx
	mov	DWORD PTR _this$[ebp], ecx
	mov	ecx, DWORD PTR _this$[ebp]
	call	??1exception@std@@UAE@XZ		; std::exception::~exception
	mov	esp, ebp
	pop	ebp
	ret	0
??1runtime_error@std@@UAE@XZ ENDP			; std::runtime_error::~runtime_error
_TEXT	ENDS
; Function compile flags: /Odtp
;	COMDAT ??0runtime_error@std@@QAE@ABV?$basic_string@DU?$char_traits@D@std@@V?$allocator@D@2@@1@@Z
_TEXT	SEGMENT
_this$ = -4						; size = 4
__Message$ = 8						; size = 4
??0runtime_error@std@@QAE@ABV?$basic_string@DU?$char_traits@D@std@@V?$allocator@D@2@@1@@Z PROC ; std::runtime_error::runtime_error, COMDAT
; _this$ = ecx
; File C:\Program Files (x86)\Microsoft Visual Studio\2019\Preview\VC\Tools\MSVC\14.23.28008\include\stdexcept
; Line 127
	push	ebp
	mov	ebp, esp
	push	ecx
	mov	DWORD PTR _this$[ebp], ecx
	mov	ecx, DWORD PTR __Message$[ebp]
	call	?c_str@?$basic_string@DU?$char_traits@D@std@@V?$allocator@D@2@@std@@QBEPBDXZ ; std::basic_string<char,std::char_traits<char>,std::allocator<char> >::c_str
	push	eax
	mov	ecx, DWORD PTR _this$[ebp]
	call	??0exception@std@@QAE@QBD@Z		; std::exception::exception
	mov	eax, DWORD PTR _this$[ebp]
	mov	DWORD PTR [eax], OFFSET ??_7runtime_error@std@@6B@
; Line 128
	mov	eax, DWORD PTR _this$[ebp]
	mov	esp, ebp
	pop	ebp
	ret	4
??0runtime_error@std@@QAE@ABV?$basic_string@DU?$char_traits@D@std@@V?$allocator@D@2@@1@@Z ENDP ; std::runtime_error::runtime_error
_TEXT	ENDS
; Function compile flags: /Odtp
;	COMDAT ??1?$_Compressed_pair@V?$allocator@D@std@@V?$_String_val@U?$_Simple_types@D@std@@@2@$00@std@@QAE@XZ
_TEXT	SEGMENT
_this$ = -4						; size = 4
??1?$_Compressed_pair@V?$allocator@D@std@@V?$_String_val@U?$_Simple_types@D@std@@@2@$00@std@@QAE@XZ PROC ; std::_Compressed_pair<std::allocator<char>,std::_String_val<std::_Simple_types<char> >,1>::~_Compressed_pair<std::allocator<char>,std::_String_val<std::_Simple_types<char> >,1>, COMDAT
; _this$ = ecx
	push	ebp
	mov	ebp, esp
	push	ecx
	mov	DWORD PTR _this$[ebp], ecx
	mov	ecx, DWORD PTR _this$[ebp]
	call	??1?$_String_val@U?$_Simple_types@D@std@@@std@@QAE@XZ
	mov	esp, ebp
	pop	ebp
	ret	0
??1?$_Compressed_pair@V?$allocator@D@std@@V?$_String_val@U?$_Simple_types@D@std@@@2@$00@std@@QAE@XZ ENDP ; std::_Compressed_pair<std::allocator<char>,std::_String_val<std::_Simple_types<char> >,1>::~_Compressed_pair<std::allocator<char>,std::_String_val<std::_Simple_types<char> >,1>
_TEXT	ENDS
; Function compile flags: /Odtp
;	COMDAT ?_Get_first@?$_Compressed_pair@V?$allocator@D@std@@V?$_String_val@U?$_Simple_types@D@std@@@2@$00@std@@QBEABV?$allocator@D@2@XZ
_TEXT	SEGMENT
_this$ = -4						; size = 4
?_Get_first@?$_Compressed_pair@V?$allocator@D@std@@V?$_String_val@U?$_Simple_types@D@std@@@2@$00@std@@QBEABV?$allocator@D@2@XZ PROC ; std::_Compressed_pair<std::allocator<char>,std::_String_val<std::_Simple_types<char> >,1>::_Get_first, COMDAT
; _this$ = ecx
; File C:\Program Files (x86)\Microsoft Visual Studio\2019\Preview\VC\Tools\MSVC\14.23.28008\include\xmemory
; Line 1424
	push	ebp
	mov	ebp, esp
	push	ecx
	mov	DWORD PTR _this$[ebp], ecx
; Line 1425
	mov	eax, DWORD PTR _this$[ebp]
; Line 1426
	mov	esp, ebp
	pop	ebp
	ret	0
?_Get_first@?$_Compressed_pair@V?$allocator@D@std@@V?$_String_val@U?$_Simple_types@D@std@@@2@$00@std@@QBEABV?$allocator@D@2@XZ ENDP ; std::_Compressed_pair<std::allocator<char>,std::_String_val<std::_Simple_types<char> >,1>::_Get_first
_TEXT	ENDS
; Function compile flags: /Odtp
;	COMDAT ?_Get_first@?$_Compressed_pair@V?$allocator@D@std@@V?$_String_val@U?$_Simple_types@D@std@@@2@$00@std@@QAEAAV?$allocator@D@2@XZ
_TEXT	SEGMENT
_this$ = -4						; size = 4
?_Get_first@?$_Compressed_pair@V?$allocator@D@std@@V?$_String_val@U?$_Simple_types@D@std@@@2@$00@std@@QAEAAV?$allocator@D@2@XZ PROC ; std::_Compressed_pair<std::allocator<char>,std::_String_val<std::_Simple_types<char> >,1>::_Get_first, COMDAT
; _this$ = ecx
; File C:\Program Files (x86)\Microsoft Visual Studio\2019\Preview\VC\Tools\MSVC\14.23.28008\include\xmemory
; Line 1420
	push	ebp
	mov	ebp, esp
	push	ecx
	mov	DWORD PTR _this$[ebp], ecx
; Line 1421
	mov	eax, DWORD PTR _this$[ebp]
; Line 1422
	mov	esp, ebp
	pop	ebp
	ret	0
?_Get_first@?$_Compressed_pair@V?$allocator@D@std@@V?$_String_val@U?$_Simple_types@D@std@@@2@$00@std@@QAEAAV?$allocator@D@2@XZ ENDP ; std::_Compressed_pair<std::allocator<char>,std::_String_val<std::_Simple_types<char> >,1>::_Get_first
_TEXT	ENDS
; Function compile flags: /Odtp
;	COMDAT ?_Getal@?$basic_string@DU?$char_traits@D@std@@V?$allocator@D@2@@std@@ABEABV?$allocator@D@2@XZ
_TEXT	SEGMENT
_this$ = -4						; size = 4
?_Getal@?$basic_string@DU?$char_traits@D@std@@V?$allocator@D@2@@std@@ABEABV?$allocator@D@2@XZ PROC ; std::basic_string<char,std::char_traits<char>,std::allocator<char> >::_Getal, COMDAT
; _this$ = ecx
; File C:\Program Files (x86)\Microsoft Visual Studio\2019\Preview\VC\Tools\MSVC\14.23.28008\include\xstring
; Line 4198
	push	ebp
	mov	ebp, esp
	push	ecx
	mov	DWORD PTR _this$[ebp], ecx
; Line 4199
	mov	ecx, DWORD PTR _this$[ebp]
	call	?_Get_first@?$_Compressed_pair@V?$allocator@D@std@@V?$_String_val@U?$_Simple_types@D@std@@@2@$00@std@@QBEABV?$allocator@D@2@XZ ; std::_Compressed_pair<std::allocator<char>,std::_String_val<std::_Simple_types<char> >,1>::_Get_first
; Line 4200
	mov	esp, ebp
	pop	ebp
	ret	0
?_Getal@?$basic_string@DU?$char_traits@D@std@@V?$allocator@D@2@@std@@ABEABV?$allocator@D@2@XZ ENDP ; std::basic_string<char,std::char_traits<char>,std::allocator<char> >::_Getal
_TEXT	ENDS
; Function compile flags: /Odtp
;	COMDAT ?_Getal@?$basic_string@DU?$char_traits@D@std@@V?$allocator@D@2@@std@@AAEAAV?$allocator@D@2@XZ
_TEXT	SEGMENT
_this$ = -4						; size = 4
?_Getal@?$basic_string@DU?$char_traits@D@std@@V?$allocator@D@2@@std@@AAEAAV?$allocator@D@2@XZ PROC ; std::basic_string<char,std::char_traits<char>,std::allocator<char> >::_Getal, COMDAT
; _this$ = ecx
; File C:\Program Files (x86)\Microsoft Visual Studio\2019\Preview\VC\Tools\MSVC\14.23.28008\include\xstring
; Line 4194
	push	ebp
	mov	ebp, esp
	push	ecx
	mov	DWORD PTR _this$[ebp], ecx
; Line 4195
	mov	ecx, DWORD PTR _this$[ebp]
	call	?_Get_first@?$_Compressed_pair@V?$allocator@D@std@@V?$_String_val@U?$_Simple_types@D@std@@@2@$00@std@@QAEAAV?$allocator@D@2@XZ ; std::_Compressed_pair<std::allocator<char>,std::_String_val<std::_Simple_types<char> >,1>::_Get_first
; Line 4196
	mov	esp, ebp
	pop	ebp
	ret	0
?_Getal@?$basic_string@DU?$char_traits@D@std@@V?$allocator@D@2@@std@@AAEAAV?$allocator@D@2@XZ ENDP ; std::basic_string<char,std::char_traits<char>,std::allocator<char> >::_Getal
_TEXT	ENDS
; Function compile flags: /Odtp
;	COMDAT ?_Xlen@?$basic_string@DU?$char_traits@D@std@@V?$allocator@D@2@@std@@CAXXZ
_TEXT	SEGMENT
?_Xlen@?$basic_string@DU?$char_traits@D@std@@V?$allocator@D@2@@std@@CAXXZ PROC ; std::basic_string<char,std::char_traits<char>,std::allocator<char> >::_Xlen, COMDAT
; File C:\Program Files (x86)\Microsoft Visual Studio\2019\Preview\VC\Tools\MSVC\14.23.28008\include\xstring
; Line 4180
	push	ebp
	mov	ebp, esp
; Line 4181
	push	OFFSET ??_C@_0BA@JFNIOLAK@string?5too?5long@
	call	?_Xlength_error@std@@YAXPBD@Z		; std::_Xlength_error
$LN2@Xlen:
; Line 4182
	pop	ebp
	ret	0
?_Xlen@?$basic_string@DU?$char_traits@D@std@@V?$allocator@D@2@@std@@CAXXZ ENDP ; std::basic_string<char,std::char_traits<char>,std::allocator<char> >::_Xlen
_TEXT	ENDS
; Function compile flags: /Odtp
;	COMDAT ?_Tidy_deallocate@?$basic_string@DU?$char_traits@D@std@@V?$allocator@D@2@@std@@AAEXXZ
_TEXT	SEGMENT
__Al$1 = -16						; size = 4
__Ptr$2 = -12						; size = 4
_this$ = -8						; size = 4
$T3 = -1						; size = 1
?_Tidy_deallocate@?$basic_string@DU?$char_traits@D@std@@V?$allocator@D@2@@std@@AAEXXZ PROC ; std::basic_string<char,std::char_traits<char>,std::allocator<char> >::_Tidy_deallocate, COMDAT
; _this$ = ecx
; File C:\Program Files (x86)\Microsoft Visual Studio\2019\Preview\VC\Tools\MSVC\14.23.28008\include\xstring
; Line 4164
	push	ebp
	mov	ebp, esp
	sub	esp, 16					; 00000010H
	mov	DWORD PTR _this$[ebp], ecx
; Line 4165
	mov	ecx, DWORD PTR _this$[ebp]
	call	?_Orphan_all@_Container_base0@std@@QAEXXZ ; std::_Container_base0::_Orphan_all
; Line 4166
	mov	ecx, DWORD PTR _this$[ebp]
	call	?_Large_string_engaged@?$_String_val@U?$_Simple_types@D@std@@@std@@QBE_NXZ ; std::_String_val<std::_Simple_types<char> >::_Large_string_engaged
	movzx	eax, al
	test	eax, eax
	je	SHORT $LN2@Tidy_deall
; Line 4167
	mov	ecx, DWORD PTR _this$[ebp]
	mov	edx, DWORD PTR [ecx]
	mov	DWORD PTR __Ptr$2[ebp], edx
; Line 4168
	mov	ecx, DWORD PTR _this$[ebp]
	call	?_Getal@?$basic_string@DU?$char_traits@D@std@@V?$allocator@D@2@@std@@AAEAAV?$allocator@D@2@XZ ; std::basic_string<char,std::char_traits<char>,std::allocator<char> >::_Getal
	mov	DWORD PTR __Al$1[ebp], eax
; Line 4169
	mov	eax, DWORD PTR _this$[ebp]
	push	eax
	call	??$_Destroy_in_place@PAD@std@@YAXAAPAD@Z ; std::_Destroy_in_place<char *>
	add	esp, 4
; Line 4170
	mov	ecx, DWORD PTR _this$[ebp]
	mov	edx, DWORD PTR [ecx+20]
	add	edx, 1
	push	edx
	mov	eax, DWORD PTR __Ptr$2[ebp]
	push	eax
	mov	ecx, DWORD PTR __Al$1[ebp]
	call	?deallocate@?$allocator@D@std@@QAEXQADI@Z ; std::allocator<char>::deallocate
$LN2@Tidy_deall:
; Line 4173
	mov	ecx, DWORD PTR _this$[ebp]
	mov	DWORD PTR [ecx+16], 0
; Line 4174
	mov	edx, DWORD PTR _this$[ebp]
	mov	DWORD PTR [edx+20], 15			; 0000000fH
; Line 4177
	mov	BYTE PTR $T3[ebp], 0
	lea	eax, DWORD PTR $T3[ebp]
	push	eax
	mov	ecx, 1
	imul	edx, ecx, 0
	add	edx, DWORD PTR _this$[ebp]
	push	edx
	call	?assign@?$_Narrow_char_traits@DH@std@@SAXAADABD@Z ; std::_Narrow_char_traits<char,int>::assign
	add	esp, 8
; Line 4178
	mov	esp, ebp
	pop	ebp
	ret	0
?_Tidy_deallocate@?$basic_string@DU?$char_traits@D@std@@V?$allocator@D@2@@std@@AAEXXZ ENDP ; std::basic_string<char,std::char_traits<char>,std::allocator<char> >::_Tidy_deallocate
_TEXT	ENDS
; Function compile flags: /Odtp
;	COMDAT ?_Tidy_init@?$basic_string@DU?$char_traits@D@std@@V?$allocator@D@2@@std@@AAEXXZ
_TEXT	SEGMENT
_this$ = -8						; size = 4
$T1 = -1						; size = 1
?_Tidy_init@?$basic_string@DU?$char_traits@D@std@@V?$allocator@D@2@@std@@AAEXXZ PROC ; std::basic_string<char,std::char_traits<char>,std::allocator<char> >::_Tidy_init, COMDAT
; _this$ = ecx
; File C:\Program Files (x86)\Microsoft Visual Studio\2019\Preview\VC\Tools\MSVC\14.23.28008\include\xstring
; Line 4156
	push	ebp
	mov	ebp, esp
	sub	esp, 8
	mov	DWORD PTR _this$[ebp], ecx
; Line 4157
	mov	eax, DWORD PTR _this$[ebp]
	mov	DWORD PTR [eax+16], 0
; Line 4158
	mov	ecx, DWORD PTR _this$[ebp]
	mov	DWORD PTR [ecx+20], 15			; 0000000fH
; Line 4161
	mov	BYTE PTR $T1[ebp], 0
	lea	edx, DWORD PTR $T1[ebp]
	push	edx
	mov	eax, 1
	imul	ecx, eax, 0
	add	ecx, DWORD PTR _this$[ebp]
	push	ecx
	call	?assign@?$_Narrow_char_traits@DH@std@@SAXAADABD@Z ; std::_Narrow_char_traits<char,int>::assign
	add	esp, 8
; Line 4162
	mov	esp, ebp
	pop	ebp
	ret	0
?_Tidy_init@?$basic_string@DU?$char_traits@D@std@@V?$allocator@D@2@@std@@AAEXXZ ENDP ; std::basic_string<char,std::char_traits<char>,std::allocator<char> >::_Tidy_init
_TEXT	ENDS
; Function compile flags: /Odtp
;	COMDAT ?_Calculate_growth@?$basic_string@DU?$char_traits@D@std@@V?$allocator@D@2@@std@@ABEII@Z
_TEXT	SEGMENT
_this$ = -4						; size = 4
__Requested$ = 8					; size = 4
?_Calculate_growth@?$basic_string@DU?$char_traits@D@std@@V?$allocator@D@2@@std@@ABEII@Z PROC ; std::basic_string<char,std::char_traits<char>,std::allocator<char> >::_Calculate_growth, COMDAT
; _this$ = ecx
; File C:\Program Files (x86)\Microsoft Visual Studio\2019\Preview\VC\Tools\MSVC\14.23.28008\include\xstring
; Line 4077
	push	ebp
	mov	ebp, esp
	push	ecx
	mov	DWORD PTR _this$[ebp], ecx
; Line 4078
	mov	ecx, DWORD PTR _this$[ebp]
	call	?max_size@?$basic_string@DU?$char_traits@D@std@@V?$allocator@D@2@@std@@QBEIXZ ; std::basic_string<char,std::char_traits<char>,std::allocator<char> >::max_size
	push	eax
	mov	eax, DWORD PTR _this$[ebp]
	mov	ecx, DWORD PTR [eax+20]
	push	ecx
	mov	edx, DWORD PTR __Requested$[ebp]
	push	edx
	call	?_Calculate_growth@?$basic_string@DU?$char_traits@D@std@@V?$allocator@D@2@@std@@CAIIII@Z ; std::basic_string<char,std::char_traits<char>,std::allocator<char> >::_Calculate_growth
	add	esp, 12					; 0000000cH
; Line 4079
	mov	esp, ebp
	pop	ebp
	ret	4
?_Calculate_growth@?$basic_string@DU?$char_traits@D@std@@V?$allocator@D@2@@std@@ABEII@Z ENDP ; std::basic_string<char,std::char_traits<char>,std::allocator<char> >::_Calculate_growth
_TEXT	ENDS
; Function compile flags: /Odtp
;	COMDAT ?_Calculate_growth@?$basic_string@DU?$char_traits@D@std@@V?$allocator@D@2@@std@@CAIIII@Z
_TEXT	SEGMENT
$T1 = -8						; size = 4
__Masked$ = -4						; size = 4
__Requested$ = 8					; size = 4
__Old$ = 12						; size = 4
__Max$ = 16						; size = 4
?_Calculate_growth@?$basic_string@DU?$char_traits@D@std@@V?$allocator@D@2@@std@@CAIIII@Z PROC ; std::basic_string<char,std::char_traits<char>,std::allocator<char> >::_Calculate_growth, COMDAT
; File C:\Program Files (x86)\Microsoft Visual Studio\2019\Preview\VC\Tools\MSVC\14.23.28008\include\xstring
; Line 4064
	push	ebp
	mov	ebp, esp
	sub	esp, 8
; Line 4065
	mov	eax, DWORD PTR __Requested$[ebp]
	or	eax, 15					; 0000000fH
	mov	DWORD PTR __Masked$[ebp], eax
; Line 4066
	mov	ecx, DWORD PTR __Masked$[ebp]
	cmp	ecx, DWORD PTR __Max$[ebp]
	jbe	SHORT $LN2@Calculate_
; Line 4067
	mov	eax, DWORD PTR __Max$[ebp]
	jmp	SHORT $LN1@Calculate_
$LN2@Calculate_:
; Line 4070
	mov	edx, DWORD PTR __Old$[ebp]
	shr	edx, 1
	mov	eax, DWORD PTR __Max$[ebp]
	sub	eax, edx
	cmp	DWORD PTR __Old$[ebp], eax
	jbe	SHORT $LN3@Calculate_
; Line 4071
	mov	eax, DWORD PTR __Max$[ebp]
	jmp	SHORT $LN1@Calculate_
$LN3@Calculate_:
; Line 4074
	mov	ecx, DWORD PTR __Old$[ebp]
	shr	ecx, 1
	add	ecx, DWORD PTR __Old$[ebp]
	mov	DWORD PTR $T1[ebp], ecx
	lea	edx, DWORD PTR $T1[ebp]
	push	edx
	lea	eax, DWORD PTR __Masked$[ebp]
	push	eax
	call	??$_Max_value@I@std@@YAABIABI0@Z	; std::_Max_value<unsigned int>
	add	esp, 8
	mov	eax, DWORD PTR [eax]
$LN1@Calculate_:
; Line 4075
	mov	esp, ebp
	pop	ebp
	ret	0
?_Calculate_growth@?$basic_string@DU?$char_traits@D@std@@V?$allocator@D@2@@std@@CAIIII@Z ENDP ; std::basic_string<char,std::char_traits<char>,std::allocator<char> >::_Calculate_growth
_TEXT	ENDS
; Function compile flags: /Odtp
;	COMDAT ?empty@?$basic_string@DU?$char_traits@D@std@@V?$allocator@D@2@@std@@QBE_NXZ
_TEXT	SEGMENT
_this$ = -8						; size = 4
tv67 = -4						; size = 4
?empty@?$basic_string@DU?$char_traits@D@std@@V?$allocator@D@2@@std@@QBE_NXZ PROC ; std::basic_string<char,std::char_traits<char>,std::allocator<char> >::empty, COMDAT
; _this$ = ecx
; File C:\Program Files (x86)\Microsoft Visual Studio\2019\Preview\VC\Tools\MSVC\14.23.28008\include\xstring
; Line 3622
	push	ebp
	mov	ebp, esp
	sub	esp, 8
	mov	DWORD PTR _this$[ebp], ecx
; Line 3623
	mov	ecx, DWORD PTR _this$[ebp]
	call	?size@?$basic_string@DU?$char_traits@D@std@@V?$allocator@D@2@@std@@QBEIXZ ; std::basic_string<char,std::char_traits<char>,std::allocator<char> >::size
	test	eax, eax
	jne	SHORT $LN3@empty
	mov	DWORD PTR tv67[ebp], 1
	jmp	SHORT $LN4@empty
$LN3@empty:
	mov	DWORD PTR tv67[ebp], 0
$LN4@empty:
	mov	al, BYTE PTR tv67[ebp]
; Line 3624
	mov	esp, ebp
	pop	ebp
	ret	0
?empty@?$basic_string@DU?$char_traits@D@std@@V?$allocator@D@2@@std@@QBE_NXZ ENDP ; std::basic_string<char,std::char_traits<char>,std::allocator<char> >::empty
_TEXT	ENDS
; Function compile flags: /Odtp
;	COMDAT ?max_size@?$basic_string@DU?$char_traits@D@std@@V?$allocator@D@2@@std@@QBEIXZ
_TEXT	SEGMENT
$T1 = -24						; size = 4
$T2 = -20						; size = 4
__Storage_max$ = -16					; size = 4
__Alloc_max$ = -12					; size = 4
$T3 = -8						; size = 4
_this$ = -4						; size = 4
?max_size@?$basic_string@DU?$char_traits@D@std@@V?$allocator@D@2@@std@@QBEIXZ PROC ; std::basic_string<char,std::char_traits<char>,std::allocator<char> >::max_size, COMDAT
; _this$ = ecx
; File C:\Program Files (x86)\Microsoft Visual Studio\2019\Preview\VC\Tools\MSVC\14.23.28008\include\xstring
; Line 3570
	push	ebp
	mov	ebp, esp
	sub	esp, 24					; 00000018H
	mov	DWORD PTR _this$[ebp], ecx
; Line 3571
	mov	ecx, DWORD PTR _this$[ebp]
	call	?_Getal@?$basic_string@DU?$char_traits@D@std@@V?$allocator@D@2@@std@@ABEABV?$allocator@D@2@XZ ; std::basic_string<char,std::char_traits<char>,std::allocator<char> >::_Getal
	push	eax
	call	?max_size@?$_Default_allocator_traits@V?$allocator@D@std@@@std@@SAIABV?$allocator@D@2@@Z ; std::_Default_allocator_traits<std::allocator<char> >::max_size
	add	esp, 4
	mov	DWORD PTR __Alloc_max$[ebp], eax
; Line 3572
	mov	DWORD PTR $T3[ebp], 16			; 00000010H
	lea	eax, DWORD PTR $T3[ebp]
	push	eax
	lea	ecx, DWORD PTR __Alloc_max$[ebp]
	push	ecx
	call	??$_Max_value@I@std@@YAABIABI0@Z	; std::_Max_value<unsigned int>
	add	esp, 8
	mov	edx, DWORD PTR [eax]
	mov	DWORD PTR __Storage_max$[ebp], edx
; Line 3574
	mov	eax, DWORD PTR __Storage_max$[ebp]
	sub	eax, 1
	mov	DWORD PTR $T2[ebp], eax
	call	?max@?$numeric_limits@H@std@@SAHXZ	; std::numeric_limits<int>::max
	mov	DWORD PTR $T1[ebp], eax
	lea	ecx, DWORD PTR $T2[ebp]
	push	ecx
	lea	edx, DWORD PTR $T1[ebp]
	push	edx
	call	??$_Min_value@I@std@@YAABIABI0@Z	; std::_Min_value<unsigned int>
	add	esp, 8
	mov	eax, DWORD PTR [eax]
; Line 3577
	mov	esp, ebp
	pop	ebp
	ret	0
?max_size@?$basic_string@DU?$char_traits@D@std@@V?$allocator@D@2@@std@@QBEIXZ ENDP ; std::basic_string<char,std::char_traits<char>,std::allocator<char> >::max_size
_TEXT	ENDS
; Function compile flags: /Odtp
;	COMDAT ?size@?$basic_string@DU?$char_traits@D@std@@V?$allocator@D@2@@std@@QBEIXZ
_TEXT	SEGMENT
_this$ = -4						; size = 4
?size@?$basic_string@DU?$char_traits@D@std@@V?$allocator@D@2@@std@@QBEIXZ PROC ; std::basic_string<char,std::char_traits<char>,std::allocator<char> >::size, COMDAT
; _this$ = ecx
; File C:\Program Files (x86)\Microsoft Visual Studio\2019\Preview\VC\Tools\MSVC\14.23.28008\include\xstring
; Line 3566
	push	ebp
	mov	ebp, esp
	push	ecx
	mov	DWORD PTR _this$[ebp], ecx
; Line 3567
	mov	eax, DWORD PTR _this$[ebp]
	mov	eax, DWORD PTR [eax+16]
; Line 3568
	mov	esp, ebp
	pop	ebp
	ret	0
?size@?$basic_string@DU?$char_traits@D@std@@V?$allocator@D@2@@std@@QBEIXZ ENDP ; std::basic_string<char,std::char_traits<char>,std::allocator<char> >::size
_TEXT	ENDS
; Function compile flags: /Odtp
;	COMDAT ?c_str@?$basic_string@DU?$char_traits@D@std@@V?$allocator@D@2@@std@@QBEPBDXZ
_TEXT	SEGMENT
_this$ = -4						; size = 4
?c_str@?$basic_string@DU?$char_traits@D@std@@V?$allocator@D@2@@std@@QBEPBDXZ PROC ; std::basic_string<char,std::char_traits<char>,std::allocator<char> >::c_str, COMDAT
; _this$ = ecx
; File C:\Program Files (x86)\Microsoft Visual Studio\2019\Preview\VC\Tools\MSVC\14.23.28008\include\xstring
; Line 3548
	push	ebp
	mov	ebp, esp
	push	ecx
	mov	DWORD PTR _this$[ebp], ecx
; Line 3549
	mov	ecx, DWORD PTR _this$[ebp]
	call	?_Myptr@?$_String_val@U?$_Simple_types@D@std@@@std@@QBEPBDXZ ; std::_String_val<std::_Simple_types<char> >::_Myptr
; Line 3550
	mov	esp, ebp
	pop	ebp
	ret	0
?c_str@?$basic_string@DU?$char_traits@D@std@@V?$allocator@D@2@@std@@QBEPBDXZ ENDP ; std::basic_string<char,std::char_traits<char>,std::allocator<char> >::c_str
_TEXT	ENDS
; Function compile flags: /Odtp
;	COMDAT ?assign@?$basic_string@DU?$char_traits@D@std@@V?$allocator@D@2@@std@@QAEAAV12@QBD@Z
_TEXT	SEGMENT
_this$ = -4						; size = 4
__Ptr$ = 8						; size = 4
?assign@?$basic_string@DU?$char_traits@D@std@@V?$allocator@D@2@@std@@QAEAAV12@QBD@Z PROC ; std::basic_string<char,std::char_traits<char>,std::allocator<char> >::assign, COMDAT
; _this$ = ecx
; File C:\Program Files (x86)\Microsoft Visual Studio\2019\Preview\VC\Tools\MSVC\14.23.28008\include\xstring
; Line 2860
	push	ebp
	mov	ebp, esp
	push	ecx
	mov	DWORD PTR _this$[ebp], ecx
; Line 2861
	mov	eax, DWORD PTR __Ptr$[ebp]
	push	eax
	call	?length@?$_Narrow_char_traits@DH@std@@SAIQBD@Z ; std::_Narrow_char_traits<char,int>::length
	add	esp, 4
	push	eax
	call	??$_Convert_size@I@std@@YAII@Z		; std::_Convert_size<unsigned int>
	add	esp, 4
	push	eax
	mov	ecx, DWORD PTR __Ptr$[ebp]
	push	ecx
	mov	ecx, DWORD PTR _this$[ebp]
	call	?assign@?$basic_string@DU?$char_traits@D@std@@V?$allocator@D@2@@std@@QAEAAV12@QBDI@Z ; std::basic_string<char,std::char_traits<char>,std::allocator<char> >::assign
; Line 2862
	mov	esp, ebp
	pop	ebp
	ret	4
?assign@?$basic_string@DU?$char_traits@D@std@@V?$allocator@D@2@@std@@QAEAAV12@QBD@Z ENDP ; std::basic_string<char,std::char_traits<char>,std::allocator<char> >::assign
_TEXT	ENDS
; Function compile flags: /Odtp
;	COMDAT ?assign@?$basic_string@DU?$char_traits@D@std@@V?$allocator@D@2@@std@@QAEAAV12@QBDI@Z
_TEXT	SEGMENT
__Old_ptr$1 = -12					; size = 4
_this$ = -8						; size = 4
$T2 = -2						; size = 1
$T3 = -1						; size = 1
__Ptr$ = 8						; size = 4
__Count$ = 12						; size = 4
?assign@?$basic_string@DU?$char_traits@D@std@@V?$allocator@D@2@@std@@QAEAAV12@QBDI@Z PROC ; std::basic_string<char,std::char_traits<char>,std::allocator<char> >::assign, COMDAT
; _this$ = ecx
; File C:\Program Files (x86)\Microsoft Visual Studio\2019\Preview\VC\Tools\MSVC\14.23.28008\include\xstring
; Line 2841
	push	ebp
	mov	ebp, esp
	sub	esp, 12					; 0000000cH
	mov	DWORD PTR _this$[ebp], ecx
; Line 2843
	mov	eax, DWORD PTR _this$[ebp]
	mov	ecx, DWORD PTR __Count$[ebp]
	cmp	ecx, DWORD PTR [eax+20]
	ja	SHORT $LN2@assign
; Line 2844
	mov	ecx, DWORD PTR _this$[ebp]
	call	?_Myptr@?$_String_val@U?$_Simple_types@D@std@@@std@@QAEPADXZ ; std::_String_val<std::_Simple_types<char> >::_Myptr
	mov	DWORD PTR __Old_ptr$1[ebp], eax
; Line 2845
	mov	edx, DWORD PTR _this$[ebp]
	mov	eax, DWORD PTR __Count$[ebp]
	mov	DWORD PTR [edx+16], eax
; Line 2846
	mov	ecx, DWORD PTR __Count$[ebp]
	push	ecx
	mov	edx, DWORD PTR __Ptr$[ebp]
	push	edx
	mov	eax, DWORD PTR __Old_ptr$1[ebp]
	push	eax
	call	?move@?$_Narrow_char_traits@DH@std@@SAPADQADQBDI@Z ; std::_Narrow_char_traits<char,int>::move
	add	esp, 12					; 0000000cH
; Line 2847
	mov	BYTE PTR $T3[ebp], 0
	lea	ecx, DWORD PTR $T3[ebp]
	push	ecx
	mov	edx, DWORD PTR __Old_ptr$1[ebp]
	add	edx, DWORD PTR __Count$[ebp]
	push	edx
	call	?assign@?$_Narrow_char_traits@DH@std@@SAXAADABD@Z ; std::_Narrow_char_traits<char,int>::assign
	add	esp, 8
; Line 2848
	mov	eax, DWORD PTR _this$[ebp]
	jmp	SHORT $LN1@assign
$LN2@assign:
; Line 2851
	xor	eax, eax
	mov	BYTE PTR $T2[ebp], al
	mov	ecx, DWORD PTR __Ptr$[ebp]
	push	ecx
	movzx	edx, BYTE PTR $T2[ebp]
	push	edx
	mov	eax, DWORD PTR __Count$[ebp]
	push	eax
	mov	ecx, DWORD PTR _this$[ebp]
	call	??$_Reallocate_for@V<lambda_9366063389c5f42a00a5088cf24e69de>@@PBD@?$basic_string@DU?$char_traits@D@std@@V?$allocator@D@2@@std@@AAEAAV01@IV<lambda_9366063389c5f42a00a5088cf24e69de>@@PBD@Z ; std::basic_string<char,std::char_traits<char>,std::allocator<char> >::_Reallocate_for<<lambda_9366063389c5f42a00a5088cf24e69de>,char const *>
$LN1@assign:
; Line 2858
	mov	esp, ebp
	pop	ebp
	ret	8
?assign@?$basic_string@DU?$char_traits@D@std@@V?$allocator@D@2@@std@@QAEAAV12@QBDI@Z ENDP ; std::basic_string<char,std::char_traits<char>,std::allocator<char> >::assign
_TEXT	ENDS
; Function compile flags: /Odtp
;	COMDAT ?append@?$basic_string@DU?$char_traits@D@std@@V?$allocator@D@2@@std@@QAEAAV12@QBD@Z
_TEXT	SEGMENT
_this$ = -4						; size = 4
__Ptr$ = 8						; size = 4
?append@?$basic_string@DU?$char_traits@D@std@@V?$allocator@D@2@@std@@QAEAAV12@QBD@Z PROC ; std::basic_string<char,std::char_traits<char>,std::allocator<char> >::append, COMDAT
; _this$ = ecx
; File C:\Program Files (x86)\Microsoft Visual Studio\2019\Preview\VC\Tools\MSVC\14.23.28008\include\xstring
; Line 2756
	push	ebp
	mov	ebp, esp
	push	ecx
	mov	DWORD PTR _this$[ebp], ecx
; Line 2757
	mov	eax, DWORD PTR __Ptr$[ebp]
	push	eax
	call	?length@?$_Narrow_char_traits@DH@std@@SAIQBD@Z ; std::_Narrow_char_traits<char,int>::length
	add	esp, 4
	push	eax
	call	??$_Convert_size@I@std@@YAII@Z		; std::_Convert_size<unsigned int>
	add	esp, 4
	push	eax
	mov	ecx, DWORD PTR __Ptr$[ebp]
	push	ecx
	mov	ecx, DWORD PTR _this$[ebp]
	call	?append@?$basic_string@DU?$char_traits@D@std@@V?$allocator@D@2@@std@@QAEAAV12@QBDI@Z ; std::basic_string<char,std::char_traits<char>,std::allocator<char> >::append
; Line 2758
	mov	esp, ebp
	pop	ebp
	ret	4
?append@?$basic_string@DU?$char_traits@D@std@@V?$allocator@D@2@@std@@QAEAAV12@QBD@Z ENDP ; std::basic_string<char,std::char_traits<char>,std::allocator<char> >::append
_TEXT	ENDS
; Function compile flags: /Odtp
;	COMDAT ?append@?$basic_string@DU?$char_traits@D@std@@V?$allocator@D@2@@std@@QAEAAV12@QBDI@Z
_TEXT	SEGMENT
__Old_ptr$1 = -16					; size = 4
__Old_size$ = -12					; size = 4
_this$ = -8						; size = 4
$T2 = -2						; size = 1
$T3 = -1						; size = 1
__Ptr$ = 8						; size = 4
__Count$ = 12						; size = 4
?append@?$basic_string@DU?$char_traits@D@std@@V?$allocator@D@2@@std@@QAEAAV12@QBDI@Z PROC ; std::basic_string<char,std::char_traits<char>,std::allocator<char> >::append, COMDAT
; _this$ = ecx
; File C:\Program Files (x86)\Microsoft Visual Studio\2019\Preview\VC\Tools\MSVC\14.23.28008\include\xstring
; Line 2734
	push	ebp
	mov	ebp, esp
	sub	esp, 16					; 00000010H
	mov	DWORD PTR _this$[ebp], ecx
; Line 2736
	mov	eax, DWORD PTR _this$[ebp]
	mov	ecx, DWORD PTR [eax+16]
	mov	DWORD PTR __Old_size$[ebp], ecx
; Line 2737
	mov	edx, DWORD PTR _this$[ebp]
	mov	eax, DWORD PTR [edx+20]
	sub	eax, DWORD PTR __Old_size$[ebp]
	cmp	DWORD PTR __Count$[ebp], eax
	ja	SHORT $LN2@append
; Line 2738
	mov	ecx, DWORD PTR __Old_size$[ebp]
	add	ecx, DWORD PTR __Count$[ebp]
	mov	edx, DWORD PTR _this$[ebp]
	mov	DWORD PTR [edx+16], ecx
; Line 2739
	mov	ecx, DWORD PTR _this$[ebp]
	call	?_Myptr@?$_String_val@U?$_Simple_types@D@std@@@std@@QAEPADXZ ; std::_String_val<std::_Simple_types<char> >::_Myptr
	mov	DWORD PTR __Old_ptr$1[ebp], eax
; Line 2740
	mov	eax, DWORD PTR __Count$[ebp]
	push	eax
	mov	ecx, DWORD PTR __Ptr$[ebp]
	push	ecx
	mov	edx, DWORD PTR __Old_ptr$1[ebp]
	add	edx, DWORD PTR __Old_size$[ebp]
	push	edx
	call	?move@?$_Narrow_char_traits@DH@std@@SAPADQADQBDI@Z ; std::_Narrow_char_traits<char,int>::move
	add	esp, 12					; 0000000cH
; Line 2741
	mov	BYTE PTR $T3[ebp], 0
	lea	eax, DWORD PTR $T3[ebp]
	push	eax
	mov	ecx, DWORD PTR __Old_size$[ebp]
	add	ecx, DWORD PTR __Count$[ebp]
	add	ecx, DWORD PTR __Old_ptr$1[ebp]
	push	ecx
	call	?assign@?$_Narrow_char_traits@DH@std@@SAXAADABD@Z ; std::_Narrow_char_traits<char,int>::assign
	add	esp, 8
; Line 2742
	mov	eax, DWORD PTR _this$[ebp]
	jmp	SHORT $LN1@append
$LN2@append:
; Line 2745
	xor	edx, edx
	mov	BYTE PTR $T2[ebp], dl
	mov	eax, DWORD PTR __Count$[ebp]
	push	eax
	mov	ecx, DWORD PTR __Ptr$[ebp]
	push	ecx
	movzx	edx, BYTE PTR $T2[ebp]
	push	edx
	mov	eax, DWORD PTR __Count$[ebp]
	push	eax
	mov	ecx, DWORD PTR _this$[ebp]
	call	??$_Reallocate_grow_by@V<lambda_ab246b20b9526e2ef7792587e4298a77>@@PBDI@?$basic_string@DU?$char_traits@D@std@@V?$allocator@D@2@@std@@AAEAAV01@IV<lambda_ab246b20b9526e2ef7792587e4298a77>@@PBDI@Z ; std::basic_string<char,std::char_traits<char>,std::allocator<char> >::_Reallocate_grow_by<<lambda_ab246b20b9526e2ef7792587e4298a77>,char const *,unsigned int>
$LN1@append:
; Line 2754
	mov	esp, ebp
	pop	ebp
	ret	8
?append@?$basic_string@DU?$char_traits@D@std@@V?$allocator@D@2@@std@@QAEAAV12@QBDI@Z ENDP ; std::basic_string<char,std::char_traits<char>,std::allocator<char> >::append
_TEXT	ENDS
; Function compile flags: /Odtp
;	COMDAT ?append@?$basic_string@DU?$char_traits@D@std@@V?$allocator@D@2@@std@@QAEAAV12@ABV12@@Z
_TEXT	SEGMENT
_this$ = -4						; size = 4
__Right$ = 8						; size = 4
?append@?$basic_string@DU?$char_traits@D@std@@V?$allocator@D@2@@std@@QAEAAV12@ABV12@@Z PROC ; std::basic_string<char,std::char_traits<char>,std::allocator<char> >::append, COMDAT
; _this$ = ecx
; File C:\Program Files (x86)\Microsoft Visual Studio\2019\Preview\VC\Tools\MSVC\14.23.28008\include\xstring
; Line 2708
	push	ebp
	mov	ebp, esp
	push	ecx
	mov	DWORD PTR _this$[ebp], ecx
; Line 2709
	mov	eax, DWORD PTR __Right$[ebp]
	mov	ecx, DWORD PTR [eax+16]
	push	ecx
	mov	ecx, DWORD PTR __Right$[ebp]
	call	?_Myptr@?$_String_val@U?$_Simple_types@D@std@@@std@@QBEPBDXZ ; std::_String_val<std::_Simple_types<char> >::_Myptr
	push	eax
	mov	ecx, DWORD PTR _this$[ebp]
	call	?append@?$basic_string@DU?$char_traits@D@std@@V?$allocator@D@2@@std@@QAEAAV12@QBDI@Z ; std::basic_string<char,std::char_traits<char>,std::allocator<char> >::append
; Line 2710
	mov	esp, ebp
	pop	ebp
	ret	4
?append@?$basic_string@DU?$char_traits@D@std@@V?$allocator@D@2@@std@@QAEAAV12@ABV12@@Z ENDP ; std::basic_string<char,std::char_traits<char>,std::allocator<char> >::append
_TEXT	ENDS
; Function compile flags: /Odtp
;	COMDAT ??1?$basic_string@DU?$char_traits@D@std@@V?$allocator@D@2@@std@@QAE@XZ
_TEXT	SEGMENT
_this$ = -4						; size = 4
??1?$basic_string@DU?$char_traits@D@std@@V?$allocator@D@2@@std@@QAE@XZ PROC ; std::basic_string<char,std::char_traits<char>,std::allocator<char> >::~basic_string<char,std::char_traits<char>,std::allocator<char> >, COMDAT
; _this$ = ecx
; File C:\Program Files (x86)\Microsoft Visual Studio\2019\Preview\VC\Tools\MSVC\14.23.28008\include\xstring
; Line 2597
	push	ebp
	mov	ebp, esp
	push	ecx
	mov	DWORD PTR _this$[ebp], ecx
; Line 2598
	mov	ecx, DWORD PTR _this$[ebp]
	call	?_Tidy_deallocate@?$basic_string@DU?$char_traits@D@std@@V?$allocator@D@2@@std@@AAEXXZ ; std::basic_string<char,std::char_traits<char>,std::allocator<char> >::_Tidy_deallocate
; Line 2605
	mov	ecx, DWORD PTR _this$[ebp]
	call	??1?$_Compressed_pair@V?$allocator@D@std@@V?$_String_val@U?$_Simple_types@D@std@@@2@$00@std@@QAE@XZ
	mov	esp, ebp
	pop	ebp
	ret	0
??1?$basic_string@DU?$char_traits@D@std@@V?$allocator@D@2@@std@@QAE@XZ ENDP ; std::basic_string<char,std::char_traits<char>,std::allocator<char> >::~basic_string<char,std::char_traits<char>,std::allocator<char> >
_TEXT	ENDS
; Function compile flags: /Odtp
;	COMDAT ?_Construct_lv_contents@?$basic_string@DU?$char_traits@D@std@@V?$allocator@D@2@@std@@AAEXABV12@@Z
_TEXT	SEGMENT
__Al$ = -40						; size = 4
$T1 = -36						; size = 4
$T2 = -32						; size = 4
__New_capacity$ = -28					; size = 4
__New_array$ = -24					; size = 4
__Right_ptr$ = -20					; size = 4
__Right_data$ = -16					; size = 4
_this$ = -12						; size = 4
__Right_size$ = -8					; size = 4
__My_data$ = -4						; size = 4
__Right$ = 8						; size = 4
?_Construct_lv_contents@?$basic_string@DU?$char_traits@D@std@@V?$allocator@D@2@@std@@AAEXABV12@@Z PROC ; std::basic_string<char,std::char_traits<char>,std::allocator<char> >::_Construct_lv_contents, COMDAT
; _this$ = ecx
; File C:\Program Files (x86)\Microsoft Visual Studio\2019\Preview\VC\Tools\MSVC\14.23.28008\include\xstring
; Line 2525
	push	ebp
	mov	ebp, esp
	sub	esp, 40					; 00000028H
	mov	DWORD PTR _this$[ebp], ecx
; Line 2530
	mov	eax, DWORD PTR __Right$[ebp]
	mov	DWORD PTR __Right_data$[ebp], eax
; Line 2531
	mov	ecx, DWORD PTR __Right_data$[ebp]
	mov	edx, DWORD PTR [ecx+16]
	mov	DWORD PTR __Right_size$[ebp], edx
; Line 2532
	mov	ecx, DWORD PTR __Right_data$[ebp]
	call	?_Myptr@?$_String_val@U?$_Simple_types@D@std@@@std@@QBEPBDXZ ; std::_String_val<std::_Simple_types<char> >::_Myptr
	mov	DWORD PTR __Right_ptr$[ebp], eax
; Line 2533
	mov	eax, DWORD PTR _this$[ebp]
	mov	DWORD PTR __My_data$[ebp], eax
; Line 2534
	cmp	DWORD PTR __Right_size$[ebp], 16	; 00000010H
	jae	SHORT $LN2@Construct_
; Line 2535
	push	16					; 00000010H
	mov	ecx, DWORD PTR __Right_ptr$[ebp]
	push	ecx
	mov	edx, DWORD PTR __My_data$[ebp]
	push	edx
	call	?copy@?$_Narrow_char_traits@DH@std@@SAPADQADQBDI@Z ; std::_Narrow_char_traits<char,int>::copy
	add	esp, 12					; 0000000cH
; Line 2536
	mov	eax, DWORD PTR __My_data$[ebp]
	mov	ecx, DWORD PTR __Right_size$[ebp]
	mov	DWORD PTR [eax+16], ecx
; Line 2537
	mov	edx, DWORD PTR __My_data$[ebp]
	mov	DWORD PTR [edx+20], 15			; 0000000fH
; Line 2538
	jmp	$LN1@Construct_
$LN2@Construct_:
; Line 2541
	mov	ecx, DWORD PTR _this$[ebp]
	call	?_Getal@?$basic_string@DU?$char_traits@D@std@@V?$allocator@D@2@@std@@AAEAAV?$allocator@D@2@XZ ; std::basic_string<char,std::char_traits<char>,std::allocator<char> >::_Getal
	mov	DWORD PTR __Al$[ebp], eax
; Line 2542
	mov	ecx, DWORD PTR _this$[ebp]
	call	?max_size@?$basic_string@DU?$char_traits@D@std@@V?$allocator@D@2@@std@@QBEIXZ ; std::basic_string<char,std::char_traits<char>,std::allocator<char> >::max_size
	mov	DWORD PTR $T2[ebp], eax
	mov	eax, DWORD PTR __Right_size$[ebp]
	or	eax, 15					; 0000000fH
	mov	DWORD PTR $T1[ebp], eax
	lea	ecx, DWORD PTR $T2[ebp]
	push	ecx
	lea	edx, DWORD PTR $T1[ebp]
	push	edx
	call	??$_Min_value@I@std@@YAABIABI0@Z	; std::_Min_value<unsigned int>
	add	esp, 8
	mov	eax, DWORD PTR [eax]
	mov	DWORD PTR __New_capacity$[ebp], eax
; Line 2543
	mov	ecx, DWORD PTR __New_capacity$[ebp]
	add	ecx, 1
	push	ecx
	mov	ecx, DWORD PTR __Al$[ebp]
	call	?allocate@?$allocator@D@std@@QAEPADI@Z	; std::allocator<char>::allocate
	mov	DWORD PTR __New_array$[ebp], eax
; Line 2544
	lea	edx, DWORD PTR __New_array$[ebp]
	push	edx
	mov	eax, DWORD PTR __My_data$[ebp]
	push	eax
	call	??$_Construct_in_place@PADABQAD@std@@YAXAAPADABQAD@Z ; std::_Construct_in_place<char *,char * const &>
	add	esp, 8
; Line 2545
	mov	ecx, DWORD PTR __Right_size$[ebp]
	add	ecx, 1
	push	ecx
	mov	edx, DWORD PTR __Right_ptr$[ebp]
	push	edx
	mov	eax, DWORD PTR __New_array$[ebp]
	push	eax
	call	??$_Unfancy@D@std@@YAPADPAD@Z		; std::_Unfancy<char>
	add	esp, 4
	push	eax
	call	?copy@?$_Narrow_char_traits@DH@std@@SAPADQADQBDI@Z ; std::_Narrow_char_traits<char,int>::copy
	add	esp, 12					; 0000000cH
; Line 2546
	mov	ecx, DWORD PTR __My_data$[ebp]
	mov	edx, DWORD PTR __Right_size$[ebp]
	mov	DWORD PTR [ecx+16], edx
; Line 2547
	mov	eax, DWORD PTR __My_data$[ebp]
	mov	ecx, DWORD PTR __New_capacity$[ebp]
	mov	DWORD PTR [eax+20], ecx
$LN1@Construct_:
; Line 2548
	mov	esp, ebp
	pop	ebp
	ret	4
?_Construct_lv_contents@?$basic_string@DU?$char_traits@D@std@@V?$allocator@D@2@@std@@AAEXABV12@@Z ENDP ; std::basic_string<char,std::char_traits<char>,std::allocator<char> >::_Construct_lv_contents
_TEXT	ENDS
; Function compile flags: /Odtp
;	COMDAT ?_Take_contents@?$basic_string@DU?$char_traits@D@std@@V?$allocator@D@2@@std@@AAEXAAV12@U?$integral_constant@_N$00@2@@Z
_TEXT	SEGMENT
_this$ = -4						; size = 4
__Right$ = 8						; size = 4
___formal$ = 12						; size = 1
?_Take_contents@?$basic_string@DU?$char_traits@D@std@@V?$allocator@D@2@@std@@AAEXAAV12@U?$integral_constant@_N$00@2@@Z PROC ; std::basic_string<char,std::char_traits<char>,std::allocator<char> >::_Take_contents, COMDAT
; _this$ = ecx
; File C:\Program Files (x86)\Microsoft Visual Studio\2019\Preview\VC\Tools\MSVC\14.23.28008\include\xstring
; Line 2484
	push	ebp
	mov	ebp, esp
	push	ecx
	mov	DWORD PTR _this$[ebp], ecx
; Line 2499
	mov	eax, DWORD PTR __Right$[ebp]
	push	eax
	mov	ecx, DWORD PTR _this$[ebp]
	call	?_Memcpy_val_from@?$basic_string@DU?$char_traits@D@std@@V?$allocator@D@2@@std@@AAEXABV12@@Z ; std::basic_string<char,std::char_traits<char>,std::allocator<char> >::_Memcpy_val_from
; Line 2500
	mov	ecx, DWORD PTR __Right$[ebp]
	call	?_Tidy_init@?$basic_string@DU?$char_traits@D@std@@V?$allocator@D@2@@std@@AAEXXZ ; std::basic_string<char,std::char_traits<char>,std::allocator<char> >::_Tidy_init
; Line 2501
	mov	esp, ebp
	pop	ebp
	ret	8
?_Take_contents@?$basic_string@DU?$char_traits@D@std@@V?$allocator@D@2@@std@@AAEXAAV12@U?$integral_constant@_N$00@2@@Z ENDP ; std::basic_string<char,std::char_traits<char>,std::allocator<char> >::_Take_contents
_TEXT	ENDS
; Function compile flags: /Odtp
;	COMDAT ?_Memcpy_val_from@?$basic_string@DU?$char_traits@D@std@@V?$allocator@D@2@@std@@AAEXABV12@@Z
_TEXT	SEGMENT
__My_data_mem$ = -12					; size = 4
__Right_data_mem$ = -8					; size = 4
_this$ = -4						; size = 4
__Right$ = 8						; size = 4
?_Memcpy_val_from@?$basic_string@DU?$char_traits@D@std@@V?$allocator@D@2@@std@@AAEXABV12@@Z PROC ; std::basic_string<char,std::char_traits<char>,std::allocator<char> >::_Memcpy_val_from, COMDAT
; _this$ = ecx
; File C:\Program Files (x86)\Microsoft Visual Studio\2019\Preview\VC\Tools\MSVC\14.23.28008\include\xstring
; Line 2475
	push	ebp
	mov	ebp, esp
	sub	esp, 12					; 0000000cH
	mov	DWORD PTR _this$[ebp], ecx
; Line 2477
	mov	eax, DWORD PTR _this$[ebp]
	push	eax
	call	??$addressof@V?$_String_val@U?$_Simple_types@D@std@@@std@@@std@@YAPAV?$_String_val@U?$_Simple_types@D@std@@@0@AAV10@@Z ; std::addressof<std::_String_val<std::_Simple_types<char> > >
	add	esp, 4
	mov	DWORD PTR __My_data_mem$[ebp], eax
; Line 2479
	mov	ecx, DWORD PTR __Right$[ebp]
	push	ecx
	call	??$addressof@$$CBV?$_String_val@U?$_Simple_types@D@std@@@std@@@std@@YAPBV?$_String_val@U?$_Simple_types@D@std@@@0@ABV10@@Z ; std::addressof<std::_String_val<std::_Simple_types<char> > const >
	add	esp, 4
	mov	DWORD PTR __Right_data_mem$[ebp], eax
; Line 2481
	push	24					; 00000018H
	mov	edx, DWORD PTR __Right_data_mem$[ebp]
	push	edx
	mov	eax, DWORD PTR __My_data_mem$[ebp]
	push	eax
	call	_memcpy
	add	esp, 12					; 0000000cH
; Line 2482
	mov	esp, ebp
	pop	ebp
	ret	4
?_Memcpy_val_from@?$basic_string@DU?$char_traits@D@std@@V?$allocator@D@2@@std@@AAEXABV12@@Z ENDP ; std::basic_string<char,std::char_traits<char>,std::allocator<char> >::_Memcpy_val_from
_TEXT	ENDS
; Function compile flags: /Odtp
;	COMDAT ??0?$basic_string@DU?$char_traits@D@std@@V?$allocator@D@2@@std@@QAE@$$QAV01@@Z
_TEXT	SEGMENT
_this$ = -8						; size = 4
$T1 = -3						; size = 1
$T2 = -2						; size = 1
$T3 = -1						; size = 1
__Right$ = 8						; size = 4
??0?$basic_string@DU?$char_traits@D@std@@V?$allocator@D@2@@std@@QAE@$$QAV01@@Z PROC ; std::basic_string<char,std::char_traits<char>,std::allocator<char> >::basic_string<char,std::char_traits<char>,std::allocator<char> >, COMDAT
; _this$ = ecx
; File C:\Program Files (x86)\Microsoft Visual Studio\2019\Preview\VC\Tools\MSVC\14.23.28008\include\xstring
; Line 2383
	push	ebp
	mov	ebp, esp
	sub	esp, 8
	mov	DWORD PTR _this$[ebp], ecx
	mov	ecx, DWORD PTR __Right$[ebp]
	call	?_Getal@?$basic_string@DU?$char_traits@D@std@@V?$allocator@D@2@@std@@AAEAAV?$allocator@D@2@XZ ; std::basic_string<char,std::char_traits<char>,std::allocator<char> >::_Getal
	push	eax
	call	??$move@AAV?$allocator@D@std@@@std@@YA$$QAV?$allocator@D@0@AAV10@@Z ; std::move<std::allocator<char> &>
	add	esp, 4
	push	eax
	movzx	eax, BYTE PTR $T2[ebp]
	push	eax
	mov	ecx, DWORD PTR _this$[ebp]
	call	??$?0V?$allocator@D@std@@$$V@?$_Compressed_pair@V?$allocator@D@std@@V?$_String_val@U?$_Simple_types@D@std@@@2@$00@std@@QAE@U_One_then_variadic_args_t@1@$$QAV?$allocator@D@1@@Z ; std::_Compressed_pair<std::allocator<char>,std::_String_val<std::_Simple_types<char> >,1>::_Compressed_pair<std::allocator<char>,std::_String_val<std::_Simple_types<char> >,1><std::allocator<char> >
; Line 2385
	lea	ecx, DWORD PTR $T1[ebp]
	push	ecx
	mov	ecx, DWORD PTR _this$[ebp]
	call	?_Alloc_proxy@_Container_base0@std@@QAEXABU_Fake_allocator@2@@Z ; std::_Container_base0::_Alloc_proxy
; Line 2386
	xor	edx, edx
	mov	BYTE PTR $T3[ebp], dl
	movzx	eax, BYTE PTR $T3[ebp]
	push	eax
	mov	ecx, DWORD PTR __Right$[ebp]
	push	ecx
	mov	ecx, DWORD PTR _this$[ebp]
	call	?_Take_contents@?$basic_string@DU?$char_traits@D@std@@V?$allocator@D@2@@std@@AAEXAAV12@U?$integral_constant@_N$00@2@@Z ; std::basic_string<char,std::char_traits<char>,std::allocator<char> >::_Take_contents
; Line 2387
	mov	eax, DWORD PTR _this$[ebp]
	mov	esp, ebp
	pop	ebp
	ret	4
??0?$basic_string@DU?$char_traits@D@std@@V?$allocator@D@2@@std@@QAE@$$QAV01@@Z ENDP ; std::basic_string<char,std::char_traits<char>,std::allocator<char> >::basic_string<char,std::char_traits<char>,std::allocator<char> >
_TEXT	ENDS
; Function compile flags: /Odtp
;	COMDAT ??0?$basic_string@DU?$char_traits@D@std@@V?$allocator@D@2@@std@@QAE@QBD@Z
_TEXT	SEGMENT
__Alproxy$ = -12					; size = 4
_this$ = -8						; size = 4
_$S5$ = -3						; size = 1
$T1 = -2						; size = 1
__Proxy$ = -1						; size = 1
__Ptr$ = 8						; size = 4
??0?$basic_string@DU?$char_traits@D@std@@V?$allocator@D@2@@std@@QAE@QBD@Z PROC ; std::basic_string<char,std::char_traits<char>,std::allocator<char> >::basic_string<char,std::char_traits<char>,std::allocator<char> >, COMDAT
; _this$ = ecx
; File C:\Program Files (x86)\Microsoft Visual Studio\2019\Preview\VC\Tools\MSVC\14.23.28008\include\xstring
; Line 2297
	push	ebp
	mov	ebp, esp
	sub	esp, 12					; 0000000cH
	mov	DWORD PTR _this$[ebp], ecx
	movzx	eax, BYTE PTR $T1[ebp]
	push	eax
	mov	ecx, DWORD PTR _this$[ebp]
	call	??$?0$$V@?$_Compressed_pair@V?$allocator@D@std@@V?$_String_val@U?$_Simple_types@D@std@@@2@$00@std@@QAE@U_Zero_then_variadic_args_t@1@@Z ; std::_Compressed_pair<std::allocator<char>,std::_String_val<std::_Simple_types<char> >,1>::_Compressed_pair<std::allocator<char>,std::_String_val<std::_Simple_types<char> >,1><>
; Line 2299
	lea	ecx, DWORD PTR _$S5$[ebp]
	mov	DWORD PTR __Alproxy$[ebp], ecx
; Line 2300
	mov	edx, DWORD PTR _this$[ebp]
	push	edx
	mov	eax, DWORD PTR __Alproxy$[ebp]
	push	eax
	lea	ecx, DWORD PTR __Proxy$[ebp]
	call	??0_Fake_proxy_ptr_impl@std@@QAE@ABU_Fake_allocator@1@ABU_Container_base0@1@@Z ; std::_Fake_proxy_ptr_impl::_Fake_proxy_ptr_impl
; Line 2301
	mov	ecx, DWORD PTR _this$[ebp]
	call	?_Tidy_init@?$basic_string@DU?$char_traits@D@std@@V?$allocator@D@2@@std@@AAEXXZ ; std::basic_string<char,std::char_traits<char>,std::allocator<char> >::_Tidy_init
; Line 2302
	mov	ecx, DWORD PTR __Ptr$[ebp]
	push	ecx
	mov	ecx, DWORD PTR _this$[ebp]
	call	?assign@?$basic_string@DU?$char_traits@D@std@@V?$allocator@D@2@@std@@QAEAAV12@QBD@Z ; std::basic_string<char,std::char_traits<char>,std::allocator<char> >::assign
; Line 2303
	lea	ecx, DWORD PTR __Proxy$[ebp]
	call	?_Release@_Fake_proxy_ptr_impl@std@@QAEXXZ ; std::_Fake_proxy_ptr_impl::_Release
; Line 2304
	mov	eax, DWORD PTR _this$[ebp]
	mov	esp, ebp
	pop	ebp
	ret	4
??0?$basic_string@DU?$char_traits@D@std@@V?$allocator@D@2@@std@@QAE@QBD@Z ENDP ; std::basic_string<char,std::char_traits<char>,std::allocator<char> >::basic_string<char,std::char_traits<char>,std::allocator<char> >
_TEXT	ENDS
; Function compile flags: /Odtp
;	COMDAT ??0?$basic_string@DU?$char_traits@D@std@@V?$allocator@D@2@@std@@QAE@ABV01@@Z
_TEXT	SEGMENT
__Alproxy$ = -12					; size = 4
_this$ = -8						; size = 4
_$S7$ = -4						; size = 1
$T1 = -3						; size = 1
$T2 = -2						; size = 1
__Proxy$ = -1						; size = 1
__Right$ = 8						; size = 4
??0?$basic_string@DU?$char_traits@D@std@@V?$allocator@D@2@@std@@QAE@ABV01@@Z PROC ; std::basic_string<char,std::char_traits<char>,std::allocator<char> >::basic_string<char,std::char_traits<char>,std::allocator<char> >, COMDAT
; _this$ = ecx
; File C:\Program Files (x86)\Microsoft Visual Studio\2019\Preview\VC\Tools\MSVC\14.23.28008\include\xstring
; Line 2230
	push	ebp
	mov	ebp, esp
	sub	esp, 12					; 0000000cH
	mov	DWORD PTR _this$[ebp], ecx
; Line 2231
	mov	ecx, DWORD PTR __Right$[ebp]
	call	?_Getal@?$basic_string@DU?$char_traits@D@std@@V?$allocator@D@2@@std@@ABEABV?$allocator@D@2@XZ ; std::basic_string<char,std::char_traits<char>,std::allocator<char> >::_Getal
	push	eax
	lea	eax, DWORD PTR $T2[ebp]
	push	eax
	call	?select_on_container_copy_construction@?$_Default_allocator_traits@V?$allocator@D@std@@@std@@SA?AV?$allocator@D@2@ABV32@@Z ; std::_Default_allocator_traits<std::allocator<char> >::select_on_container_copy_construction
	add	esp, 8
	push	eax
	movzx	ecx, BYTE PTR $T1[ebp]
	push	ecx
	mov	ecx, DWORD PTR _this$[ebp]
	call	??$?0V?$allocator@D@std@@$$V@?$_Compressed_pair@V?$allocator@D@std@@V?$_String_val@U?$_Simple_types@D@std@@@2@$00@std@@QAE@U_One_then_variadic_args_t@1@$$QAV?$allocator@D@1@@Z ; std::_Compressed_pair<std::allocator<char>,std::_String_val<std::_Simple_types<char> >,1>::_Compressed_pair<std::allocator<char>,std::_String_val<std::_Simple_types<char> >,1><std::allocator<char> >
; Line 2233
	lea	edx, DWORD PTR _$S7$[ebp]
	mov	DWORD PTR __Alproxy$[ebp], edx
; Line 2234
	mov	eax, DWORD PTR _this$[ebp]
	push	eax
	mov	ecx, DWORD PTR __Alproxy$[ebp]
	push	ecx
	lea	ecx, DWORD PTR __Proxy$[ebp]
	call	??0_Fake_proxy_ptr_impl@std@@QAE@ABU_Fake_allocator@1@ABU_Container_base0@1@@Z ; std::_Fake_proxy_ptr_impl::_Fake_proxy_ptr_impl
; Line 2235
	mov	edx, DWORD PTR __Right$[ebp]
	push	edx
	mov	ecx, DWORD PTR _this$[ebp]
	call	?_Construct_lv_contents@?$basic_string@DU?$char_traits@D@std@@V?$allocator@D@2@@std@@AAEXABV12@@Z ; std::basic_string<char,std::char_traits<char>,std::allocator<char> >::_Construct_lv_contents
; Line 2236
	lea	ecx, DWORD PTR __Proxy$[ebp]
	call	?_Release@_Fake_proxy_ptr_impl@std@@QAEXXZ ; std::_Fake_proxy_ptr_impl::_Release
; Line 2237
	mov	eax, DWORD PTR _this$[ebp]
	mov	esp, ebp
	pop	ebp
	ret	4
??0?$basic_string@DU?$char_traits@D@std@@V?$allocator@D@2@@std@@QAE@ABV01@@Z ENDP ; std::basic_string<char,std::char_traits<char>,std::allocator<char> >::basic_string<char,std::char_traits<char>,std::allocator<char> >
_TEXT	ENDS
; Function compile flags: /Odtp
;	COMDAT ??1?$_String_val@U?$_Simple_types@D@std@@@std@@QAE@XZ
_TEXT	SEGMENT
_this$ = -4						; size = 4
??1?$_String_val@U?$_Simple_types@D@std@@@std@@QAE@XZ PROC ; std::_String_val<std::_Simple_types<char> >::~_String_val<std::_Simple_types<char> >, COMDAT
; _this$ = ecx
	push	ebp
	mov	ebp, esp
	push	ecx
	mov	DWORD PTR _this$[ebp], ecx
	mov	ecx, DWORD PTR _this$[ebp]
	call	??1_Bxty@?$_String_val@U?$_Simple_types@D@std@@@std@@QAE@XZ ; std::_String_val<std::_Simple_types<char> >::_Bxty::~_Bxty
	mov	esp, ebp
	pop	ebp
	ret	0
??1?$_String_val@U?$_Simple_types@D@std@@@std@@QAE@XZ ENDP ; std::_String_val<std::_Simple_types<char> >::~_String_val<std::_Simple_types<char> >
_TEXT	ENDS
; Function compile flags: /Odtp
;	COMDAT ??1_Bxty@?$_String_val@U?$_Simple_types@D@std@@@std@@QAE@XZ
_TEXT	SEGMENT
_this$ = -4						; size = 4
??1_Bxty@?$_String_val@U?$_Simple_types@D@std@@@std@@QAE@XZ PROC ; std::_String_val<std::_Simple_types<char> >::_Bxty::~_Bxty, COMDAT
; _this$ = ecx
; File C:\Program Files (x86)\Microsoft Visual Studio\2019\Preview\VC\Tools\MSVC\14.23.28008\include\xstring
; Line 2148
	push	ebp
	mov	ebp, esp
	push	ecx
	mov	DWORD PTR _this$[ebp], ecx
	mov	esp, ebp
	pop	ebp
	ret	0
??1_Bxty@?$_String_val@U?$_Simple_types@D@std@@@std@@QAE@XZ ENDP ; std::_String_val<std::_Simple_types<char> >::_Bxty::~_Bxty
_TEXT	ENDS
; Function compile flags: /Odtp
;	COMDAT ??0_Bxty@?$_String_val@U?$_Simple_types@D@std@@@std@@QAE@XZ
_TEXT	SEGMENT
_this$ = -4						; size = 4
??0_Bxty@?$_String_val@U?$_Simple_types@D@std@@@std@@QAE@XZ PROC ; std::_String_val<std::_Simple_types<char> >::_Bxty::_Bxty, COMDAT
; _this$ = ecx
; File C:\Program Files (x86)\Microsoft Visual Studio\2019\Preview\VC\Tools\MSVC\14.23.28008\include\xstring
; Line 2146
	push	ebp
	mov	ebp, esp
	push	ecx
	mov	DWORD PTR _this$[ebp], ecx
	mov	eax, DWORD PTR _this$[ebp]
	mov	esp, ebp
	pop	ebp
	ret	0
??0_Bxty@?$_String_val@U?$_Simple_types@D@std@@@std@@QAE@XZ ENDP ; std::_String_val<std::_Simple_types<char> >::_Bxty::_Bxty
_TEXT	ENDS
; Function compile flags: /Odtp
;	COMDAT ?_Large_string_engaged@?$_String_val@U?$_Simple_types@D@std@@@std@@QBE_NXZ
_TEXT	SEGMENT
_this$ = -8						; size = 4
tv66 = -4						; size = 4
?_Large_string_engaged@?$_String_val@U?$_Simple_types@D@std@@@std@@QBE_NXZ PROC ; std::_String_val<std::_Simple_types<char> >::_Large_string_engaged, COMDAT
; _this$ = ecx
; File C:\Program Files (x86)\Microsoft Visual Studio\2019\Preview\VC\Tools\MSVC\14.23.28008\include\xstring
; Line 2120
	push	ebp
	mov	ebp, esp
	sub	esp, 8
	mov	DWORD PTR _this$[ebp], ecx
; Line 2121
	mov	eax, DWORD PTR _this$[ebp]
	cmp	DWORD PTR [eax+20], 16			; 00000010H
	jb	SHORT $LN3@Large_stri
	mov	DWORD PTR tv66[ebp], 1
	jmp	SHORT $LN4@Large_stri
$LN3@Large_stri:
	mov	DWORD PTR tv66[ebp], 0
$LN4@Large_stri:
	mov	al, BYTE PTR tv66[ebp]
; Line 2122
	mov	esp, ebp
	pop	ebp
	ret	0
?_Large_string_engaged@?$_String_val@U?$_Simple_types@D@std@@@std@@QBE_NXZ ENDP ; std::_String_val<std::_Simple_types<char> >::_Large_string_engaged
_TEXT	ENDS
; Function compile flags: /Odtp
;	COMDAT ?_Myptr@?$_String_val@U?$_Simple_types@D@std@@@std@@QBEPBDXZ
_TEXT	SEGMENT
__Result$ = -8						; size = 4
_this$ = -4						; size = 4
?_Myptr@?$_String_val@U?$_Simple_types@D@std@@@std@@QBEPBDXZ PROC ; std::_String_val<std::_Simple_types<char> >::_Myptr, COMDAT
; _this$ = ecx
; File C:\Program Files (x86)\Microsoft Visual Studio\2019\Preview\VC\Tools\MSVC\14.23.28008\include\xstring
; Line 2111
	push	ebp
	mov	ebp, esp
	sub	esp, 8
	mov	DWORD PTR _this$[ebp], ecx
; Line 2112
	mov	eax, DWORD PTR _this$[ebp]
	mov	DWORD PTR __Result$[ebp], eax
; Line 2113
	mov	ecx, DWORD PTR _this$[ebp]
	call	?_Large_string_engaged@?$_String_val@U?$_Simple_types@D@std@@@std@@QBE_NXZ ; std::_String_val<std::_Simple_types<char> >::_Large_string_engaged
	movzx	ecx, al
	test	ecx, ecx
	je	SHORT $LN2@Myptr
; Line 2114
	mov	edx, DWORD PTR _this$[ebp]
	mov	eax, DWORD PTR [edx]
	push	eax
	call	??$_Unfancy@D@std@@YAPADPAD@Z		; std::_Unfancy<char>
	add	esp, 4
	mov	DWORD PTR __Result$[ebp], eax
$LN2@Myptr:
; Line 2117
	mov	eax, DWORD PTR __Result$[ebp]
; Line 2118
	mov	esp, ebp
	pop	ebp
	ret	0
?_Myptr@?$_String_val@U?$_Simple_types@D@std@@@std@@QBEPBDXZ ENDP ; std::_String_val<std::_Simple_types<char> >::_Myptr
_TEXT	ENDS
; Function compile flags: /Odtp
;	COMDAT ?_Myptr@?$_String_val@U?$_Simple_types@D@std@@@std@@QAEPADXZ
_TEXT	SEGMENT
__Result$ = -8						; size = 4
_this$ = -4						; size = 4
?_Myptr@?$_String_val@U?$_Simple_types@D@std@@@std@@QAEPADXZ PROC ; std::_String_val<std::_Simple_types<char> >::_Myptr, COMDAT
; _this$ = ecx
; File C:\Program Files (x86)\Microsoft Visual Studio\2019\Preview\VC\Tools\MSVC\14.23.28008\include\xstring
; Line 2102
	push	ebp
	mov	ebp, esp
	sub	esp, 8
	mov	DWORD PTR _this$[ebp], ecx
; Line 2103
	mov	eax, DWORD PTR _this$[ebp]
	mov	DWORD PTR __Result$[ebp], eax
; Line 2104
	mov	ecx, DWORD PTR _this$[ebp]
	call	?_Large_string_engaged@?$_String_val@U?$_Simple_types@D@std@@@std@@QBE_NXZ ; std::_String_val<std::_Simple_types<char> >::_Large_string_engaged
	movzx	ecx, al
	test	ecx, ecx
	je	SHORT $LN2@Myptr
; Line 2105
	mov	edx, DWORD PTR _this$[ebp]
	mov	eax, DWORD PTR [edx]
	push	eax
	call	??$_Unfancy@D@std@@YAPADPAD@Z		; std::_Unfancy<char>
	add	esp, 4
	mov	DWORD PTR __Result$[ebp], eax
$LN2@Myptr:
; Line 2108
	mov	eax, DWORD PTR __Result$[ebp]
; Line 2109
	mov	esp, ebp
	pop	ebp
	ret	0
?_Myptr@?$_String_val@U?$_Simple_types@D@std@@@std@@QAEPADXZ ENDP ; std::_String_val<std::_Simple_types<char> >::_Myptr
_TEXT	ENDS
; Function compile flags: /Odtp
;	COMDAT ??0?$_String_val@U?$_Simple_types@D@std@@@std@@QAE@XZ
_TEXT	SEGMENT
_this$ = -4						; size = 4
??0?$_String_val@U?$_Simple_types@D@std@@@std@@QAE@XZ PROC ; std::_String_val<std::_Simple_types<char> >::_String_val<std::_Simple_types<char> >, COMDAT
; _this$ = ecx
; File C:\Program Files (x86)\Microsoft Visual Studio\2019\Preview\VC\Tools\MSVC\14.23.28008\include\xstring
; Line 2092
	push	ebp
	mov	ebp, esp
	push	ecx
	mov	DWORD PTR _this$[ebp], ecx
	mov	ecx, DWORD PTR _this$[ebp]
	call	??0_Bxty@?$_String_val@U?$_Simple_types@D@std@@@std@@QAE@XZ ; std::_String_val<std::_Simple_types<char> >::_Bxty::_Bxty
	mov	eax, DWORD PTR _this$[ebp]
	mov	DWORD PTR [eax+16], 0
	mov	ecx, DWORD PTR _this$[ebp]
	mov	DWORD PTR [ecx+20], 0
	mov	eax, DWORD PTR _this$[ebp]
	mov	esp, ebp
	pop	ebp
	ret	0
??0?$_String_val@U?$_Simple_types@D@std@@@std@@QAE@XZ ENDP ; std::_String_val<std::_Simple_types<char> >::_String_val<std::_Simple_types<char> >
_TEXT	ENDS
; Function compile flags: /Odtp
;	COMDAT ?select_on_container_copy_construction@?$_Default_allocator_traits@V?$allocator@D@std@@@std@@SA?AV?$allocator@D@2@ABV32@@Z
_TEXT	SEGMENT
___$ReturnUdt$ = 8					; size = 4
__Al$ = 12						; size = 4
?select_on_container_copy_construction@?$_Default_allocator_traits@V?$allocator@D@std@@@std@@SA?AV?$allocator@D@2@ABV32@@Z PROC ; std::_Default_allocator_traits<std::allocator<char> >::select_on_container_copy_construction, COMDAT
; File C:\Program Files (x86)\Microsoft Visual Studio\2019\Preview\VC\Tools\MSVC\14.23.28008\include\xmemory
; Line 770
	push	ebp
	mov	ebp, esp
; Line 771
	mov	eax, DWORD PTR ___$ReturnUdt$[ebp]
; Line 772
	pop	ebp
	ret	0
?select_on_container_copy_construction@?$_Default_allocator_traits@V?$allocator@D@std@@@std@@SA?AV?$allocator@D@2@ABV32@@Z ENDP ; std::_Default_allocator_traits<std::allocator<char> >::select_on_container_copy_construction
_TEXT	ENDS
; Function compile flags: /Odtp
;	COMDAT ?max_size@?$_Default_allocator_traits@V?$allocator@D@std@@@std@@SAIABV?$allocator@D@2@@Z
_TEXT	SEGMENT
___formal$ = 8						; size = 4
?max_size@?$_Default_allocator_traits@V?$allocator@D@std@@@std@@SAIABV?$allocator@D@2@@Z PROC ; std::_Default_allocator_traits<std::allocator<char> >::max_size, COMDAT
; File C:\Program Files (x86)\Microsoft Visual Studio\2019\Preview\VC\Tools\MSVC\14.23.28008\include\xmemory
; Line 766
	push	ebp
	mov	ebp, esp
; Line 767
	or	eax, -1
; Line 768
	pop	ebp
	ret	0
?max_size@?$_Default_allocator_traits@V?$allocator@D@std@@@std@@SAIABV?$allocator@D@2@@Z ENDP ; std::_Default_allocator_traits<std::allocator<char> >::max_size
_TEXT	ENDS
; Function compile flags: /Odtp
;	COMDAT ?allocate@?$allocator@D@std@@QAEPADI@Z
_TEXT	SEGMENT
_this$ = -4						; size = 4
__Count$ = 8						; size = 4
?allocate@?$allocator@D@std@@QAEPADI@Z PROC		; std::allocator<char>::allocate, COMDAT
; _this$ = ecx
; File C:\Program Files (x86)\Microsoft Visual Studio\2019\Preview\VC\Tools\MSVC\14.23.28008\include\xmemory
; Line 870
	push	ebp
	mov	ebp, esp
	push	ecx
	mov	DWORD PTR _this$[ebp], ecx
; Line 871
	mov	eax, DWORD PTR __Count$[ebp]
	push	eax
	call	??$_Get_size_of_n@$00@std@@YAII@Z	; std::_Get_size_of_n<1>
	add	esp, 4
	push	eax
	call	??$_Allocate@$07U_Default_allocate_traits@std@@$0A@@std@@YAPAXI@Z ; std::_Allocate<8,std::_Default_allocate_traits,0>
	add	esp, 4
; Line 872
	mov	esp, ebp
	pop	ebp
	ret	4
?allocate@?$allocator@D@std@@QAEPADI@Z ENDP		; std::allocator<char>::allocate
_TEXT	ENDS
; Function compile flags: /Odtp
;	COMDAT ?deallocate@?$allocator@D@std@@QAEXQADI@Z
_TEXT	SEGMENT
_this$ = -4						; size = 4
__Ptr$ = 8						; size = 4
__Count$ = 12						; size = 4
?deallocate@?$allocator@D@std@@QAEXQADI@Z PROC		; std::allocator<char>::deallocate, COMDAT
; _this$ = ecx
; File C:\Program Files (x86)\Microsoft Visual Studio\2019\Preview\VC\Tools\MSVC\14.23.28008\include\xmemory
; Line 865
	push	ebp
	mov	ebp, esp
	push	ecx
	mov	DWORD PTR _this$[ebp], ecx
; Line 867
	mov	eax, DWORD PTR __Count$[ebp]
	push	eax
	mov	ecx, DWORD PTR __Ptr$[ebp]
	push	ecx
	call	??$_Deallocate@$07$0A@@std@@YAXPAXI@Z	; std::_Deallocate<8,0>
	add	esp, 8
; Line 868
	mov	esp, ebp
	pop	ebp
	ret	8
?deallocate@?$allocator@D@std@@QAEXQADI@Z ENDP		; std::allocator<char>::deallocate
_TEXT	ENDS
; Function compile flags: /Odtp
;	COMDAT ??0?$allocator@D@std@@QAE@XZ
_TEXT	SEGMENT
_this$ = -4						; size = 4
??0?$allocator@D@std@@QAE@XZ PROC			; std::allocator<char>::allocator<char>, COMDAT
; _this$ = ecx
; File C:\Program Files (x86)\Microsoft Visual Studio\2019\Preview\VC\Tools\MSVC\14.23.28008\include\xmemory
; Line 859
	push	ebp
	mov	ebp, esp
	push	ecx
	mov	DWORD PTR _this$[ebp], ecx
	mov	eax, DWORD PTR _this$[ebp]
	mov	esp, ebp
	pop	ebp
	ret	0
??0?$allocator@D@std@@QAE@XZ ENDP			; std::allocator<char>::allocator<char>
_TEXT	ENDS
; Function compile flags: /Odtp
;	COMDAT ?eof@?$_Narrow_char_traits@DH@std@@SAHXZ
_TEXT	SEGMENT
?eof@?$_Narrow_char_traits@DH@std@@SAHXZ PROC		; std::_Narrow_char_traits<char,int>::eof, COMDAT
; File C:\Program Files (x86)\Microsoft Visual Studio\2019\Preview\VC\Tools\MSVC\14.23.28008\include\xstring
; Line 410
	push	ebp
	mov	ebp, esp
; Line 411
	or	eax, -1
; Line 412
	pop	ebp
	ret	0
?eof@?$_Narrow_char_traits@DH@std@@SAHXZ ENDP		; std::_Narrow_char_traits<char,int>::eof
_TEXT	ENDS
; Function compile flags: /Odtp
;	COMDAT ?eq_int_type@?$_Narrow_char_traits@DH@std@@SA_NABH0@Z
_TEXT	SEGMENT
tv65 = -4						; size = 4
__Left$ = 8						; size = 4
__Right$ = 12						; size = 4
?eq_int_type@?$_Narrow_char_traits@DH@std@@SA_NABH0@Z PROC ; std::_Narrow_char_traits<char,int>::eq_int_type, COMDAT
; File C:\Program Files (x86)\Microsoft Visual Studio\2019\Preview\VC\Tools\MSVC\14.23.28008\include\xstring
; Line 401
	push	ebp
	mov	ebp, esp
	push	ecx
; Line 403
	mov	eax, DWORD PTR __Left$[ebp]
	mov	ecx, DWORD PTR __Right$[ebp]
	mov	edx, DWORD PTR [eax]
	cmp	edx, DWORD PTR [ecx]
	jne	SHORT $LN3@eq_int_typ
	mov	DWORD PTR tv65[ebp], 1
	jmp	SHORT $LN4@eq_int_typ
$LN3@eq_int_typ:
	mov	DWORD PTR tv65[ebp], 0
$LN4@eq_int_typ:
	mov	al, BYTE PTR tv65[ebp]
; Line 404
	mov	esp, ebp
	pop	ebp
	ret	0
?eq_int_type@?$_Narrow_char_traits@DH@std@@SA_NABH0@Z ENDP ; std::_Narrow_char_traits<char,int>::eq_int_type
_TEXT	ENDS
; Function compile flags: /Odtp
;	COMDAT ?to_int_type@?$_Narrow_char_traits@DH@std@@SAHABD@Z
_TEXT	SEGMENT
__Ch$ = 8						; size = 4
?to_int_type@?$_Narrow_char_traits@DH@std@@SAHABD@Z PROC ; std::_Narrow_char_traits<char,int>::to_int_type, COMDAT
; File C:\Program Files (x86)\Microsoft Visual Studio\2019\Preview\VC\Tools\MSVC\14.23.28008\include\xstring
; Line 396
	push	ebp
	mov	ebp, esp
; Line 398
	mov	eax, DWORD PTR __Ch$[ebp]
	movzx	eax, BYTE PTR [eax]
; Line 399
	pop	ebp
	ret	0
?to_int_type@?$_Narrow_char_traits@DH@std@@SAHABD@Z ENDP ; std::_Narrow_char_traits<char,int>::to_int_type
_TEXT	ENDS
; Function compile flags: /Odtp
;	COMDAT ?assign@?$_Narrow_char_traits@DH@std@@SAXAADABD@Z
_TEXT	SEGMENT
__Left$ = 8						; size = 4
__Right$ = 12						; size = 4
?assign@?$_Narrow_char_traits@DH@std@@SAXAADABD@Z PROC	; std::_Narrow_char_traits<char,int>::assign, COMDAT
; File C:\Program Files (x86)\Microsoft Visual Studio\2019\Preview\VC\Tools\MSVC\14.23.28008\include\xstring
; Line 377
	push	ebp
	mov	ebp, esp
; Line 378
	mov	eax, DWORD PTR __Left$[ebp]
	mov	ecx, DWORD PTR __Right$[ebp]
	mov	dl, BYTE PTR [ecx]
	mov	BYTE PTR [eax], dl
; Line 379
	pop	ebp
	ret	0
?assign@?$_Narrow_char_traits@DH@std@@SAXAADABD@Z ENDP	; std::_Narrow_char_traits<char,int>::assign
_TEXT	ENDS
; Function compile flags: /Odtp
;	COMDAT ?move@?$_Narrow_char_traits@DH@std@@SAPADQADQBDI@Z
_TEXT	SEGMENT
__First1$ = 8						; size = 4
__First2$ = 12						; size = 4
__Count$ = 16						; size = 4
?move@?$_Narrow_char_traits@DH@std@@SAPADQADQBDI@Z PROC	; std::_Narrow_char_traits<char,int>::move, COMDAT
; File C:\Program Files (x86)\Microsoft Visual Studio\2019\Preview\VC\Tools\MSVC\14.23.28008\include\xstring
; Line 366
	push	ebp
	mov	ebp, esp
; Line 368
	mov	eax, DWORD PTR __Count$[ebp]
	push	eax
	mov	ecx, DWORD PTR __First2$[ebp]
	push	ecx
	mov	edx, DWORD PTR __First1$[ebp]
	push	edx
	call	_memmove
	add	esp, 12					; 0000000cH
; Line 369
	pop	ebp
	ret	0
?move@?$_Narrow_char_traits@DH@std@@SAPADQADQBDI@Z ENDP	; std::_Narrow_char_traits<char,int>::move
_TEXT	ENDS
; Function compile flags: /Odtp
;	COMDAT ?copy@?$_Narrow_char_traits@DH@std@@SAPADQADQBDI@Z
_TEXT	SEGMENT
__First1$ = 8						; size = 4
__First2$ = 12						; size = 4
__Count$ = 16						; size = 4
?copy@?$_Narrow_char_traits@DH@std@@SAPADQADQBDI@Z PROC	; std::_Narrow_char_traits<char,int>::copy, COMDAT
; File C:\Program Files (x86)\Microsoft Visual Studio\2019\Preview\VC\Tools\MSVC\14.23.28008\include\xstring
; Line 331
	push	ebp
	mov	ebp, esp
; Line 333
	mov	eax, DWORD PTR __Count$[ebp]
	push	eax
	mov	ecx, DWORD PTR __First2$[ebp]
	push	ecx
	mov	edx, DWORD PTR __First1$[ebp]
	push	edx
	call	_memcpy
	add	esp, 12					; 0000000cH
; Line 334
	pop	ebp
	ret	0
?copy@?$_Narrow_char_traits@DH@std@@SAPADQADQBDI@Z ENDP	; std::_Narrow_char_traits<char,int>::copy
_TEXT	ENDS
; Function compile flags: /Odtp
;	COMDAT ?length@?$_Narrow_char_traits@DH@std@@SAIQBD@Z
_TEXT	SEGMENT
__First$ = 8						; size = 4
?length@?$_Narrow_char_traits@DH@std@@SAIQBD@Z PROC	; std::_Narrow_char_traits<char,int>::length, COMDAT
; File C:\Program Files (x86)\Microsoft Visual Studio\2019\Preview\VC\Tools\MSVC\14.23.28008\include\xstring
; Line 310
	push	ebp
	mov	ebp, esp
; Line 326
	mov	eax, DWORD PTR __First$[ebp]
	push	eax
	call	_strlen
	add	esp, 4
; Line 328
	pop	ebp
	ret	0
?length@?$_Narrow_char_traits@DH@std@@SAIQBD@Z ENDP	; std::_Narrow_char_traits<char,int>::length
_TEXT	ENDS
; Function compile flags: /Odtp
;	COMDAT ?_Release@_Fake_proxy_ptr_impl@std@@QAEXXZ
_TEXT	SEGMENT
_this$ = -4						; size = 4
?_Release@_Fake_proxy_ptr_impl@std@@QAEXXZ PROC		; std::_Fake_proxy_ptr_impl::_Release, COMDAT
; _this$ = ecx
; File C:\Program Files (x86)\Microsoft Visual Studio\2019\Preview\VC\Tools\MSVC\14.23.28008\include\xmemory
; Line 1341
	push	ebp
	mov	ebp, esp
	push	ecx
	mov	DWORD PTR _this$[ebp], ecx
	mov	esp, ebp
	pop	ebp
	ret	0
?_Release@_Fake_proxy_ptr_impl@std@@QAEXXZ ENDP		; std::_Fake_proxy_ptr_impl::_Release
_TEXT	ENDS
; Function compile flags: /Odtp
;	COMDAT ??0_Fake_proxy_ptr_impl@std@@QAE@ABU_Fake_allocator@1@ABU_Container_base0@1@@Z
_TEXT	SEGMENT
_this$ = -4						; size = 4
___formal$ = 8						; size = 4
___formal$ = 12						; size = 4
??0_Fake_proxy_ptr_impl@std@@QAE@ABU_Fake_allocator@1@ABU_Container_base0@1@@Z PROC ; std::_Fake_proxy_ptr_impl::_Fake_proxy_ptr_impl, COMDAT
; _this$ = ecx
; File C:\Program Files (x86)\Microsoft Visual Studio\2019\Preview\VC\Tools\MSVC\14.23.28008\include\xmemory
; Line 1338
	push	ebp
	mov	ebp, esp
	push	ecx
	mov	DWORD PTR _this$[ebp], ecx
	mov	eax, DWORD PTR _this$[ebp]
	mov	esp, ebp
	pop	ebp
	ret	8
??0_Fake_proxy_ptr_impl@std@@QAE@ABU_Fake_allocator@1@ABU_Container_base0@1@@Z ENDP ; std::_Fake_proxy_ptr_impl::_Fake_proxy_ptr_impl
_TEXT	ENDS
; Function compile flags: /Odtp
;	COMDAT ?_Alloc_proxy@_Container_base0@std@@QAEXABU_Fake_allocator@2@@Z
_TEXT	SEGMENT
_this$ = -4						; size = 4
___formal$ = 8						; size = 4
?_Alloc_proxy@_Container_base0@std@@QAEXABU_Fake_allocator@2@@Z PROC ; std::_Container_base0::_Alloc_proxy, COMDAT
; _this$ = ecx
; File C:\Program Files (x86)\Microsoft Visual Studio\2019\Preview\VC\Tools\MSVC\14.23.28008\include\xmemory
; Line 1150
	push	ebp
	mov	ebp, esp
	push	ecx
	mov	DWORD PTR _this$[ebp], ecx
	mov	esp, ebp
	pop	ebp
	ret	4
?_Alloc_proxy@_Container_base0@std@@QAEXABU_Fake_allocator@2@@Z ENDP ; std::_Container_base0::_Alloc_proxy
_TEXT	ENDS
; Function compile flags: /Odtp
;	COMDAT ?_Orphan_all@_Container_base0@std@@QAEXXZ
_TEXT	SEGMENT
_this$ = -4						; size = 4
?_Orphan_all@_Container_base0@std@@QAEXXZ PROC		; std::_Container_base0::_Orphan_all, COMDAT
; _this$ = ecx
; File C:\Program Files (x86)\Microsoft Visual Studio\2019\Preview\VC\Tools\MSVC\14.23.28008\include\xmemory
; Line 1148
	push	ebp
	mov	ebp, esp
	push	ecx
	mov	DWORD PTR _this$[ebp], ecx
	mov	esp, ebp
	pop	ebp
	ret	0
?_Orphan_all@_Container_base0@std@@QAEXXZ ENDP		; std::_Container_base0::_Orphan_all
_TEXT	ENDS
; Function compile flags: /Odtp
;	COMDAT ??$_Convert_size@I@std@@YAII@Z
_TEXT	SEGMENT
__Len$ = 8						; size = 4
??$_Convert_size@I@std@@YAII@Z PROC			; std::_Convert_size<unsigned int>, COMDAT
; File C:\Program Files (x86)\Microsoft Visual Studio\2019\Preview\VC\Tools\MSVC\14.23.28008\include\xmemory
; Line 1073
	push	ebp
	mov	ebp, esp
; Line 1075
	mov	eax, DWORD PTR __Len$[ebp]
; Line 1076
	pop	ebp
	ret	0
??$_Convert_size@I@std@@YAII@Z ENDP			; std::_Convert_size<unsigned int>
_TEXT	ENDS
; Function compile flags: /Odtp
;	COMDAT ?_Adjust_manually_vector_aligned@std@@YAXAAPAXAAI@Z
_TEXT	SEGMENT
__Min_back_shift$ = -16					; size = 4
__Ptr_user$ = -12					; size = 4
__Ptr_container$ = -8					; size = 4
__Back_shift$ = -4					; size = 4
__Ptr$ = 8						; size = 4
__Bytes$ = 12						; size = 4
?_Adjust_manually_vector_aligned@std@@YAXAAPAXAAI@Z PROC ; std::_Adjust_manually_vector_aligned, COMDAT
; File C:\Program Files (x86)\Microsoft Visual Studio\2019\Preview\VC\Tools\MSVC\14.23.28008\include\xmemory
; Line 102
	push	ebp
	mov	ebp, esp
	sub	esp, 16					; 00000010H
; Line 104
	mov	eax, DWORD PTR __Bytes$[ebp]
	mov	ecx, DWORD PTR [eax]
	add	ecx, 35					; 00000023H
	mov	edx, DWORD PTR __Bytes$[ebp]
	mov	DWORD PTR [edx], ecx
; Line 106
	mov	eax, DWORD PTR __Ptr$[ebp]
	mov	ecx, DWORD PTR [eax]
	mov	DWORD PTR __Ptr_user$[ebp], ecx
; Line 107
	mov	edx, 4
	imul	eax, edx, -1
	mov	ecx, DWORD PTR __Ptr_user$[ebp]
	mov	edx, DWORD PTR [ecx+eax]
	mov	DWORD PTR __Ptr_container$[ebp], edx
; Line 118
	mov	DWORD PTR __Min_back_shift$[ebp], 4
; Line 120
	mov	eax, DWORD PTR __Ptr$[ebp]
	mov	ecx, DWORD PTR [eax]
	sub	ecx, DWORD PTR __Ptr_container$[ebp]
	mov	DWORD PTR __Back_shift$[ebp], ecx
$LN4@Adjust_man:
; Line 121
	cmp	DWORD PTR __Back_shift$[ebp], 4
	jb	SHORT $LN7@Adjust_man
	cmp	DWORD PTR __Back_shift$[ebp], 35	; 00000023H
	ja	SHORT $LN7@Adjust_man
	jmp	SHORT $LN2@Adjust_man
$LN7@Adjust_man:
	call	__invalid_parameter_noinfo_noreturn
	xor	edx, edx
	jne	SHORT $LN7@Adjust_man
$LN2@Adjust_man:
	xor	eax, eax
	jne	SHORT $LN4@Adjust_man
; Line 122
	mov	ecx, DWORD PTR __Ptr$[ebp]
	mov	edx, DWORD PTR __Ptr_container$[ebp]
	mov	DWORD PTR [ecx], edx
$LN10@Adjust_man:
; Line 123
	mov	esp, ebp
	pop	ebp
	ret	0
?_Adjust_manually_vector_aligned@std@@YAXAAPAXAAI@Z ENDP ; std::_Adjust_manually_vector_aligned
_TEXT	ENDS
; Function compile flags: /Odtp
;	COMDAT ?_Allocate@_Default_allocate_traits@std@@SAPAXI@Z
_TEXT	SEGMENT
__Bytes$ = 8						; size = 4
?_Allocate@_Default_allocate_traits@std@@SAPAXI@Z PROC	; std::_Default_allocate_traits::_Allocate, COMDAT
; File C:\Program Files (x86)\Microsoft Visual Studio\2019\Preview\VC\Tools\MSVC\14.23.28008\include\xmemory
; Line 46
	push	ebp
	mov	ebp, esp
; Line 47
	mov	eax, DWORD PTR __Bytes$[ebp]
	push	eax
	call	??2@YAPAXI@Z				; operator new
	add	esp, 4
; Line 48
	pop	ebp
	ret	0
?_Allocate@_Default_allocate_traits@std@@SAPAXI@Z ENDP	; std::_Default_allocate_traits::_Allocate
_TEXT	ENDS
; Function compile flags: /Odtp
;	COMDAT ?max@?$numeric_limits@H@std@@SAHXZ
_TEXT	SEGMENT
?max@?$numeric_limits@H@std@@SAHXZ PROC			; std::numeric_limits<int>::max, COMDAT
; File C:\Program Files (x86)\Microsoft Visual Studio\2019\Preview\VC\Tools\MSVC\14.23.28008\include\limits
; Line 553
	push	ebp
	mov	ebp, esp
; Line 554
	mov	eax, 2147483647				; 7fffffffH
; Line 555
	pop	ebp
	ret	0
?max@?$numeric_limits@H@std@@SAHXZ ENDP			; std::numeric_limits<int>::max
_TEXT	ENDS
; Function compile flags: /Odtp
;	COMDAT ?_Throw_bad_array_new_length@std@@YAXXZ
_TEXT	SEGMENT
$T1 = -12						; size = 12
?_Throw_bad_array_new_length@std@@YAXXZ PROC		; std::_Throw_bad_array_new_length, COMDAT
; File C:\Program Files (x86)\Microsoft Visual Studio\2019\Preview\VC\Tools\MSVC\14.23.28008\include\exception
; Line 323
	push	ebp
	mov	ebp, esp
	sub	esp, 12					; 0000000cH
; Line 324
	lea	ecx, DWORD PTR $T1[ebp]
	call	??0bad_array_new_length@std@@QAE@XZ	; std::bad_array_new_length::bad_array_new_length
	push	OFFSET __TI3?AVbad_array_new_length@std@@
	lea	eax, DWORD PTR $T1[ebp]
	push	eax
	call	__CxxThrowException@8
$LN2@Throw_bad_:
; Line 325
	mov	esp, ebp
	pop	ebp
	ret	0
?_Throw_bad_array_new_length@std@@YAXXZ ENDP		; std::_Throw_bad_array_new_length
_TEXT	ENDS
; Function compile flags: /Odtp
;	COMDAT ??_Gbad_array_new_length@std@@UAEPAXI@Z
_TEXT	SEGMENT
_this$ = -4						; size = 4
___flags$ = 8						; size = 4
??_Gbad_array_new_length@std@@UAEPAXI@Z PROC		; std::bad_array_new_length::`scalar deleting destructor', COMDAT
; _this$ = ecx
	push	ebp
	mov	ebp, esp
	push	ecx
	mov	DWORD PTR _this$[ebp], ecx
	mov	ecx, DWORD PTR _this$[ebp]
	call	??1bad_array_new_length@std@@UAE@XZ
	mov	eax, DWORD PTR ___flags$[ebp]
	and	eax, 1
	je	SHORT $LN2@scalar
	push	12					; 0000000cH
	mov	ecx, DWORD PTR _this$[ebp]
	push	ecx
	call	??3@YAXPAXI@Z				; operator delete
	add	esp, 8
$LN2@scalar:
	mov	eax, DWORD PTR _this$[ebp]
	mov	esp, ebp
	pop	ebp
	ret	4
??_Gbad_array_new_length@std@@UAEPAXI@Z ENDP		; std::bad_array_new_length::`scalar deleting destructor'
_TEXT	ENDS
; Function compile flags: /Odtp
;	COMDAT ??0bad_array_new_length@std@@QAE@ABV01@@Z
_TEXT	SEGMENT
_this$ = -4						; size = 4
___that$ = 8						; size = 4
??0bad_array_new_length@std@@QAE@ABV01@@Z PROC		; std::bad_array_new_length::bad_array_new_length, COMDAT
; _this$ = ecx
	push	ebp
	mov	ebp, esp
	push	ecx
	mov	DWORD PTR _this$[ebp], ecx
	mov	eax, DWORD PTR ___that$[ebp]
	push	eax
	mov	ecx, DWORD PTR _this$[ebp]
	call	??0bad_alloc@std@@QAE@ABV01@@Z
	mov	ecx, DWORD PTR _this$[ebp]
	mov	DWORD PTR [ecx], OFFSET ??_7bad_array_new_length@std@@6B@
	mov	eax, DWORD PTR _this$[ebp]
	mov	esp, ebp
	pop	ebp
	ret	4
??0bad_array_new_length@std@@QAE@ABV01@@Z ENDP		; std::bad_array_new_length::bad_array_new_length
_TEXT	ENDS
; Function compile flags: /Odtp
;	COMDAT ??1bad_array_new_length@std@@UAE@XZ
_TEXT	SEGMENT
_this$ = -4						; size = 4
??1bad_array_new_length@std@@UAE@XZ PROC		; std::bad_array_new_length::~bad_array_new_length, COMDAT
; _this$ = ecx
	push	ebp
	mov	ebp, esp
	push	ecx
	mov	DWORD PTR _this$[ebp], ecx
	mov	ecx, DWORD PTR _this$[ebp]
	call	??1bad_alloc@std@@UAE@XZ
	mov	esp, ebp
	pop	ebp
	ret	0
??1bad_array_new_length@std@@UAE@XZ ENDP		; std::bad_array_new_length::~bad_array_new_length
_TEXT	ENDS
; Function compile flags: /Odtp
;	COMDAT ??0bad_array_new_length@std@@QAE@XZ
_TEXT	SEGMENT
_this$ = -4						; size = 4
??0bad_array_new_length@std@@QAE@XZ PROC		; std::bad_array_new_length::bad_array_new_length, COMDAT
; _this$ = ecx
; File C:\Program Files (x86)\Microsoft Visual Studio\2019\Preview\VC\Tools\MSVC\14.23.28008\include\vcruntime_exception.h
; Line 138
	push	ebp
	mov	ebp, esp
	push	ecx
	mov	DWORD PTR _this$[ebp], ecx
; Line 137
	push	OFFSET ??_C@_0BF@KINCDENJ@bad?5array?5new?5length@
	mov	ecx, DWORD PTR _this$[ebp]
	call	??0bad_alloc@std@@AAE@QBD@Z		; std::bad_alloc::bad_alloc
; Line 138
	mov	eax, DWORD PTR _this$[ebp]
	mov	DWORD PTR [eax], OFFSET ??_7bad_array_new_length@std@@6B@
; Line 139
	mov	eax, DWORD PTR _this$[ebp]
	mov	esp, ebp
	pop	ebp
	ret	0
??0bad_array_new_length@std@@QAE@XZ ENDP		; std::bad_array_new_length::bad_array_new_length
_TEXT	ENDS
; Function compile flags: /Odtp
;	COMDAT ??_Gbad_alloc@std@@UAEPAXI@Z
_TEXT	SEGMENT
_this$ = -4						; size = 4
___flags$ = 8						; size = 4
??_Gbad_alloc@std@@UAEPAXI@Z PROC			; std::bad_alloc::`scalar deleting destructor', COMDAT
; _this$ = ecx
	push	ebp
	mov	ebp, esp
	push	ecx
	mov	DWORD PTR _this$[ebp], ecx
	mov	ecx, DWORD PTR _this$[ebp]
	call	??1bad_alloc@std@@UAE@XZ
	mov	eax, DWORD PTR ___flags$[ebp]
	and	eax, 1
	je	SHORT $LN2@scalar
	push	12					; 0000000cH
	mov	ecx, DWORD PTR _this$[ebp]
	push	ecx
	call	??3@YAXPAXI@Z				; operator delete
	add	esp, 8
$LN2@scalar:
	mov	eax, DWORD PTR _this$[ebp]
	mov	esp, ebp
	pop	ebp
	ret	4
??_Gbad_alloc@std@@UAEPAXI@Z ENDP			; std::bad_alloc::`scalar deleting destructor'
_TEXT	ENDS
; Function compile flags: /Odtp
;	COMDAT ??0bad_alloc@std@@QAE@ABV01@@Z
_TEXT	SEGMENT
_this$ = -4						; size = 4
___that$ = 8						; size = 4
??0bad_alloc@std@@QAE@ABV01@@Z PROC			; std::bad_alloc::bad_alloc, COMDAT
; _this$ = ecx
	push	ebp
	mov	ebp, esp
	push	ecx
	mov	DWORD PTR _this$[ebp], ecx
	mov	eax, DWORD PTR ___that$[ebp]
	push	eax
	mov	ecx, DWORD PTR _this$[ebp]
	call	??0exception@std@@QAE@ABV01@@Z		; std::exception::exception
	mov	ecx, DWORD PTR _this$[ebp]
	mov	DWORD PTR [ecx], OFFSET ??_7bad_alloc@std@@6B@
	mov	eax, DWORD PTR _this$[ebp]
	mov	esp, ebp
	pop	ebp
	ret	4
??0bad_alloc@std@@QAE@ABV01@@Z ENDP			; std::bad_alloc::bad_alloc
_TEXT	ENDS
; Function compile flags: /Odtp
;	COMDAT ??1bad_alloc@std@@UAE@XZ
_TEXT	SEGMENT
_this$ = -4						; size = 4
??1bad_alloc@std@@UAE@XZ PROC				; std::bad_alloc::~bad_alloc, COMDAT
; _this$ = ecx
	push	ebp
	mov	ebp, esp
	push	ecx
	mov	DWORD PTR _this$[ebp], ecx
	mov	ecx, DWORD PTR _this$[ebp]
	call	??1exception@std@@UAE@XZ		; std::exception::~exception
	mov	esp, ebp
	pop	ebp
	ret	0
??1bad_alloc@std@@UAE@XZ ENDP				; std::bad_alloc::~bad_alloc
_TEXT	ENDS
; Function compile flags: /Odtp
;	COMDAT ??0bad_alloc@std@@AAE@QBD@Z
_TEXT	SEGMENT
_this$ = -4						; size = 4
__Message$ = 8						; size = 4
??0bad_alloc@std@@AAE@QBD@Z PROC			; std::bad_alloc::bad_alloc, COMDAT
; _this$ = ecx
; File C:\Program Files (x86)\Microsoft Visual Studio\2019\Preview\VC\Tools\MSVC\14.23.28008\include\vcruntime_exception.h
; Line 127
	push	ebp
	mov	ebp, esp
	push	ecx
	mov	DWORD PTR _this$[ebp], ecx
; Line 126
	push	1
	mov	eax, DWORD PTR __Message$[ebp]
	push	eax
	mov	ecx, DWORD PTR _this$[ebp]
	call	??0exception@std@@QAE@QBDH@Z		; std::exception::exception
; Line 127
	mov	ecx, DWORD PTR _this$[ebp]
	mov	DWORD PTR [ecx], OFFSET ??_7bad_alloc@std@@6B@
; Line 128
	mov	eax, DWORD PTR _this$[ebp]
	mov	esp, ebp
	pop	ebp
	ret	4
??0bad_alloc@std@@AAE@QBD@Z ENDP			; std::bad_alloc::bad_alloc
_TEXT	ENDS
; Function compile flags: /Odtp
;	COMDAT ??_Gexception@std@@UAEPAXI@Z
_TEXT	SEGMENT
_this$ = -4						; size = 4
___flags$ = 8						; size = 4
??_Gexception@std@@UAEPAXI@Z PROC			; std::exception::`scalar deleting destructor', COMDAT
; _this$ = ecx
	push	ebp
	mov	ebp, esp
	push	ecx
	mov	DWORD PTR _this$[ebp], ecx
	mov	ecx, DWORD PTR _this$[ebp]
	call	??1exception@std@@UAE@XZ		; std::exception::~exception
	mov	eax, DWORD PTR ___flags$[ebp]
	and	eax, 1
	je	SHORT $LN2@scalar
	push	12					; 0000000cH
	mov	ecx, DWORD PTR _this$[ebp]
	push	ecx
	call	??3@YAXPAXI@Z				; operator delete
	add	esp, 8
$LN2@scalar:
	mov	eax, DWORD PTR _this$[ebp]
	mov	esp, ebp
	pop	ebp
	ret	4
??_Gexception@std@@UAEPAXI@Z ENDP			; std::exception::`scalar deleting destructor'
_TEXT	ENDS
; Function compile flags: /Odtp
;	COMDAT ?what@exception@std@@UBEPBDXZ
_TEXT	SEGMENT
tv69 = -8						; size = 4
_this$ = -4						; size = 4
?what@exception@std@@UBEPBDXZ PROC			; std::exception::what, COMDAT
; _this$ = ecx
; File C:\Program Files (x86)\Microsoft Visual Studio\2019\Preview\VC\Tools\MSVC\14.23.28008\include\vcruntime_exception.h
; Line 91
	push	ebp
	mov	ebp, esp
	sub	esp, 8
	mov	DWORD PTR _this$[ebp], ecx
; Line 92
	mov	eax, DWORD PTR _this$[ebp]
	cmp	DWORD PTR [eax+4], 0
	je	SHORT $LN3@what
	mov	ecx, DWORD PTR _this$[ebp]
	mov	edx, DWORD PTR [ecx+4]
	mov	DWORD PTR tv69[ebp], edx
	jmp	SHORT $LN4@what
$LN3@what:
	mov	DWORD PTR tv69[ebp], OFFSET ??_C@_0BC@EOODALEL@Unknown?5exception@
$LN4@what:
	mov	eax, DWORD PTR tv69[ebp]
; Line 93
	mov	esp, ebp
	pop	ebp
	ret	0
?what@exception@std@@UBEPBDXZ ENDP			; std::exception::what
_TEXT	ENDS
; Function compile flags: /Odtp
;	COMDAT ??1exception@std@@UAE@XZ
_TEXT	SEGMENT
_this$ = -4						; size = 4
??1exception@std@@UAE@XZ PROC				; std::exception::~exception, COMDAT
; _this$ = ecx
; File C:\Program Files (x86)\Microsoft Visual Studio\2019\Preview\VC\Tools\MSVC\14.23.28008\include\vcruntime_exception.h
; Line 86
	push	ebp
	mov	ebp, esp
	push	ecx
	mov	DWORD PTR _this$[ebp], ecx
	mov	eax, DWORD PTR _this$[ebp]
	mov	DWORD PTR [eax], OFFSET ??_7exception@std@@6B@
; Line 87
	mov	ecx, DWORD PTR _this$[ebp]
	add	ecx, 4
	push	ecx
	call	___std_exception_destroy
	add	esp, 4
; Line 88
	mov	esp, ebp
	pop	ebp
	ret	0
??1exception@std@@UAE@XZ ENDP				; std::exception::~exception
_TEXT	ENDS
; Function compile flags: /Odtp
;	COMDAT ??0exception@std@@QAE@ABV01@@Z
_TEXT	SEGMENT
_this$ = -4						; size = 4
__Other$ = 8						; size = 4
??0exception@std@@QAE@ABV01@@Z PROC			; std::exception::exception, COMDAT
; _this$ = ecx
; File C:\Program Files (x86)\Microsoft Visual Studio\2019\Preview\VC\Tools\MSVC\14.23.28008\include\vcruntime_exception.h
; Line 69
	push	ebp
	mov	ebp, esp
	push	ecx
	mov	DWORD PTR _this$[ebp], ecx
	mov	eax, DWORD PTR _this$[ebp]
	mov	DWORD PTR [eax], OFFSET ??_7exception@std@@6B@
; Line 68
	xor	ecx, ecx
	mov	edx, DWORD PTR _this$[ebp]
	add	edx, 4
	mov	DWORD PTR [edx], ecx
	mov	DWORD PTR [edx+4], ecx
; Line 70
	mov	eax, DWORD PTR _this$[ebp]
	add	eax, 4
	push	eax
	mov	ecx, DWORD PTR __Other$[ebp]
	add	ecx, 4
	push	ecx
	call	___std_exception_copy
	add	esp, 8
; Line 71
	mov	eax, DWORD PTR _this$[ebp]
	mov	esp, ebp
	pop	ebp
	ret	4
??0exception@std@@QAE@ABV01@@Z ENDP			; std::exception::exception
_TEXT	ENDS
; Function compile flags: /Odtp
;	COMDAT ??0exception@std@@QAE@QBDH@Z
_TEXT	SEGMENT
_this$ = -4						; size = 4
__Message$ = 8						; size = 4
___formal$ = 12						; size = 4
??0exception@std@@QAE@QBDH@Z PROC			; std::exception::exception, COMDAT
; _this$ = ecx
; File C:\Program Files (x86)\Microsoft Visual Studio\2019\Preview\VC\Tools\MSVC\14.23.28008\include\vcruntime_exception.h
; Line 63
	push	ebp
	mov	ebp, esp
	push	ecx
	mov	DWORD PTR _this$[ebp], ecx
	mov	eax, DWORD PTR _this$[ebp]
	mov	DWORD PTR [eax], OFFSET ??_7exception@std@@6B@
; Line 62
	xor	ecx, ecx
	mov	edx, DWORD PTR _this$[ebp]
	add	edx, 4
	mov	DWORD PTR [edx], ecx
	mov	DWORD PTR [edx+4], ecx
; Line 64
	mov	eax, DWORD PTR _this$[ebp]
	mov	ecx, DWORD PTR __Message$[ebp]
	mov	DWORD PTR [eax+4], ecx
; Line 65
	mov	eax, DWORD PTR _this$[ebp]
	mov	esp, ebp
	pop	ebp
	ret	8
??0exception@std@@QAE@QBDH@Z ENDP			; std::exception::exception
_TEXT	ENDS
; Function compile flags: /Odtp
;	COMDAT ??0exception@std@@QAE@QBD@Z
_TEXT	SEGMENT
__InitData$ = -12					; size = 8
_this$ = -4						; size = 4
__Message$ = 8						; size = 4
??0exception@std@@QAE@QBD@Z PROC			; std::exception::exception, COMDAT
; _this$ = ecx
; File C:\Program Files (x86)\Microsoft Visual Studio\2019\Preview\VC\Tools\MSVC\14.23.28008\include\vcruntime_exception.h
; Line 56
	push	ebp
	mov	ebp, esp
	sub	esp, 12					; 0000000cH
	mov	DWORD PTR _this$[ebp], ecx
	mov	eax, DWORD PTR _this$[ebp]
	mov	DWORD PTR [eax], OFFSET ??_7exception@std@@6B@
; Line 55
	xor	ecx, ecx
	mov	edx, DWORD PTR _this$[ebp]
	add	edx, 4
	mov	DWORD PTR [edx], ecx
	mov	DWORD PTR [edx+4], ecx
; Line 57
	mov	eax, DWORD PTR __Message$[ebp]
	mov	DWORD PTR __InitData$[ebp], eax
	mov	BYTE PTR __InitData$[ebp+4], 1
; Line 58
	mov	ecx, DWORD PTR _this$[ebp]
	add	ecx, 4
	push	ecx
	lea	edx, DWORD PTR __InitData$[ebp]
	push	edx
	call	___std_exception_copy
	add	esp, 8
; Line 59
	mov	eax, DWORD PTR _this$[ebp]
	mov	esp, ebp
	pop	ebp
	ret	4
??0exception@std@@QAE@QBD@Z ENDP			; std::exception::exception
_TEXT	ENDS
; Function compile flags: /Odtp
;	COMDAT ??2@YAPAXIPAX@Z
_TEXT	SEGMENT
__Size$ = 8						; size = 4
__Where$ = 12						; size = 4
??2@YAPAXIPAX@Z PROC					; operator new, COMDAT
; File C:\Program Files (x86)\Microsoft Visual Studio\2019\Preview\VC\Tools\MSVC\14.23.28008\include\vcruntime_new.h
; Line 168
	push	ebp
	mov	ebp, esp
; Line 170
	mov	eax, DWORD PTR __Where$[ebp]
; Line 171
	pop	ebp
	ret	0
??2@YAPAXIPAX@Z ENDP					; operator new
_TEXT	ENDS
END
